
/bench/bench:     file format elf64-littleaarch64


Disassembly of section .init:

0000000000003c38 <_init>:
    3c38:	d503201f 	nop
    3c3c:	a9bf7bfd 	stp	x29, x30, [sp, #-16]!
    3c40:	910003fd 	mov	x29, sp
    3c44:	9400130c 	bl	8874 <call_weak_fn>
    3c48:	a8c17bfd 	ldp	x29, x30, [sp], #16
    3c4c:	d65f03c0 	ret

Disassembly of section .plt:

0000000000003c50 <.plt>:
    3c50:	a9bf7bf0 	stp	x16, x30, [sp, #-16]!
    3c54:	b00002d0 	adrp	x16, 5c000 <__do_global_dtors_aux_fini_array_entry+0x14e8>
    3c58:	f946de11 	ldr	x17, [x16, #3512]
    3c5c:	9136e210 	add	x16, x16, #0xdb8
    3c60:	d61f0220 	br	x17
    3c64:	d503201f 	nop
    3c68:	d503201f 	nop
    3c6c:	d503201f 	nop

0000000000003c70 <memcpy@plt>:
    3c70:	b00002d0 	adrp	x16, 5c000 <__do_global_dtors_aux_fini_array_entry+0x14e8>
    3c74:	f946e211 	ldr	x17, [x16, #3520]
    3c78:	91370210 	add	x16, x16, #0xdc0
    3c7c:	d61f0220 	br	x17

0000000000003c80 <sigaltstack@plt>:
    3c80:	b00002d0 	adrp	x16, 5c000 <__do_global_dtors_aux_fini_array_entry+0x14e8>
    3c84:	f946e611 	ldr	x17, [x16, #3528]
    3c88:	91372210 	add	x16, x16, #0xdc8
    3c8c:	d61f0220 	br	x17

0000000000003c90 <memmove@plt>:
    3c90:	b00002d0 	adrp	x16, 5c000 <__do_global_dtors_aux_fini_array_entry+0x14e8>
    3c94:	f946ea11 	ldr	x17, [x16, #3536]
    3c98:	91374210 	add	x16, x16, #0xdd0
    3c9c:	d61f0220 	br	x17

0000000000003ca0 <getcwd@plt>:
    3ca0:	b00002d0 	adrp	x16, 5c000 <__do_global_dtors_aux_fini_array_entry+0x14e8>
    3ca4:	f946ee11 	ldr	x17, [x16, #3544]
    3ca8:	91376210 	add	x16, x16, #0xdd8
    3cac:	d61f0220 	br	x17

0000000000003cb0 <strlen@plt>:
    3cb0:	b00002d0 	adrp	x16, 5c000 <__do_global_dtors_aux_fini_array_entry+0x14e8>
    3cb4:	f946f211 	ldr	x17, [x16, #3552]
    3cb8:	91378210 	add	x16, x16, #0xde0
    3cbc:	d61f0220 	br	x17

0000000000003cc0 <exit@plt>:
    3cc0:	b00002d0 	adrp	x16, 5c000 <__do_global_dtors_aux_fini_array_entry+0x14e8>
    3cc4:	f946f611 	ldr	x17, [x16, #3560]
    3cc8:	9137a210 	add	x16, x16, #0xde8
    3ccc:	d61f0220 	br	x17

0000000000003cd0 <dup@plt>:
    3cd0:	b00002d0 	adrp	x16, 5c000 <__do_global_dtors_aux_fini_array_entry+0x14e8>
    3cd4:	f946fa11 	ldr	x17, [x16, #3568]
    3cd8:	9137c210 	add	x16, x16, #0xdf0
    3cdc:	d61f0220 	br	x17

0000000000003ce0 <__libc_start_main@plt>:
    3ce0:	b00002d0 	adrp	x16, 5c000 <__do_global_dtors_aux_fini_array_entry+0x14e8>
    3ce4:	f946fe11 	ldr	x17, [x16, #3576]
    3ce8:	9137e210 	add	x16, x16, #0xdf8
    3cec:	d61f0220 	br	x17

0000000000003cf0 <_Unwind_Backtrace@plt>:
    3cf0:	b00002d0 	adrp	x16, 5c000 <__do_global_dtors_aux_fini_array_entry+0x14e8>
    3cf4:	f9470211 	ldr	x17, [x16, #3584]
    3cf8:	91380210 	add	x16, x16, #0xe00
    3cfc:	d61f0220 	br	x17

0000000000003d00 <__xpg_strerror_r@plt>:
    3d00:	b00002d0 	adrp	x16, 5c000 <__do_global_dtors_aux_fini_array_entry+0x14e8>
    3d04:	f9470611 	ldr	x17, [x16, #3592]
    3d08:	91382210 	add	x16, x16, #0xe08
    3d0c:	d61f0220 	br	x17

0000000000003d10 <pause@plt>:
    3d10:	b00002d0 	adrp	x16, 5c000 <__do_global_dtors_aux_fini_array_entry+0x14e8>
    3d14:	f9470a11 	ldr	x17, [x16, #3600]
    3d18:	91384210 	add	x16, x16, #0xe10
    3d1c:	d61f0220 	br	x17

0000000000003d20 <gettid@plt>:
    3d20:	b00002d0 	adrp	x16, 5c000 <__do_global_dtors_aux_fini_array_entry+0x14e8>
    3d24:	f9470e11 	ldr	x17, [x16, #3608]
    3d28:	91386210 	add	x16, x16, #0xe18
    3d2c:	d61f0220 	br	x17

0000000000003d30 <pthread_getattr_np@plt>:
    3d30:	b00002d0 	adrp	x16, 5c000 <__do_global_dtors_aux_fini_array_entry+0x14e8>
    3d34:	f9471211 	ldr	x17, [x16, #3616]
    3d38:	91388210 	add	x16, x16, #0xe20
    3d3c:	d61f0220 	br	x17

0000000000003d40 <readlink@plt>:
    3d40:	b00002d0 	adrp	x16, 5c000 <__do_global_dtors_aux_fini_array_entry+0x14e8>
    3d44:	f9471611 	ldr	x17, [x16, #3624]
    3d48:	9138a210 	add	x16, x16, #0xe28
    3d4c:	d61f0220 	br	x17

0000000000003d50 <__cxa_finalize@plt>:
    3d50:	b00002d0 	adrp	x16, 5c000 <__do_global_dtors_aux_fini_array_entry+0x14e8>
    3d54:	f9471a11 	ldr	x17, [x16, #3632]
    3d58:	9138c210 	add	x16, x16, #0xe30
    3d5c:	d61f0220 	br	x17

0000000000003d60 <pipe@plt>:
    3d60:	b00002d0 	adrp	x16, 5c000 <__do_global_dtors_aux_fini_array_entry+0x14e8>
    3d64:	f9471e11 	ldr	x17, [x16, #3640]
    3d68:	9138e210 	add	x16, x16, #0xe38
    3d6c:	d61f0220 	br	x17

0000000000003d70 <clock_gettime@plt>:
    3d70:	b00002d0 	adrp	x16, 5c000 <__do_global_dtors_aux_fini_array_entry+0x14e8>
    3d74:	f9472211 	ldr	x17, [x16, #3648]
    3d78:	91390210 	add	x16, x16, #0xe40
    3d7c:	d61f0220 	br	x17

0000000000003d80 <_Unwind_GetRegionStart@plt>:
    3d80:	b00002d0 	adrp	x16, 5c000 <__do_global_dtors_aux_fini_array_entry+0x14e8>
    3d84:	f9472611 	ldr	x17, [x16, #3656]
    3d88:	91392210 	add	x16, x16, #0xe48
    3d8c:	d61f0220 	br	x17

0000000000003d90 <fork@plt>:
    3d90:	b00002d0 	adrp	x16, 5c000 <__do_global_dtors_aux_fini_array_entry+0x14e8>
    3d94:	f9472a11 	ldr	x17, [x16, #3664]
    3d98:	91394210 	add	x16, x16, #0xe50
    3d9c:	d61f0220 	br	x17

0000000000003da0 <_Unwind_GetTextRelBase@plt>:
    3da0:	b00002d0 	adrp	x16, 5c000 <__do_global_dtors_aux_fini_array_entry+0x14e8>
    3da4:	f9472e11 	ldr	x17, [x16, #3672]
    3da8:	91396210 	add	x16, x16, #0xe58
    3dac:	d61f0220 	br	x17

0000000000003db0 <_Unwind_RaiseException@plt>:
    3db0:	b00002d0 	adrp	x16, 5c000 <__do_global_dtors_aux_fini_array_entry+0x14e8>
    3db4:	f9473211 	ldr	x17, [x16, #3680]
    3db8:	91398210 	add	x16, x16, #0xe60
    3dbc:	d61f0220 	br	x17

0000000000003dc0 <getauxval@plt>:
    3dc0:	b00002d0 	adrp	x16, 5c000 <__do_global_dtors_aux_fini_array_entry+0x14e8>
    3dc4:	f9473611 	ldr	x17, [x16, #3688]
    3dc8:	9139a210 	add	x16, x16, #0xe68
    3dcc:	d61f0220 	br	x17

0000000000003dd0 <signal@plt>:
    3dd0:	b00002d0 	adrp	x16, 5c000 <__do_global_dtors_aux_fini_array_entry+0x14e8>
    3dd4:	f9473a11 	ldr	x17, [x16, #3696]
    3dd8:	9139c210 	add	x16, x16, #0xe70
    3ddc:	d61f0220 	br	x17

0000000000003de0 <malloc@plt>:
    3de0:	b00002d0 	adrp	x16, 5c000 <__do_global_dtors_aux_fini_array_entry+0x14e8>
    3de4:	f9473e11 	ldr	x17, [x16, #3704]
    3de8:	9139e210 	add	x16, x16, #0xe78
    3dec:	d61f0220 	br	x17

0000000000003df0 <stat64@plt>:
    3df0:	b00002d0 	adrp	x16, 5c000 <__do_global_dtors_aux_fini_array_entry+0x14e8>
    3df4:	f9474211 	ldr	x17, [x16, #3712]
    3df8:	913a0210 	add	x16, x16, #0xe80
    3dfc:	d61f0220 	br	x17

0000000000003e00 <poll@plt>:
    3e00:	b00002d0 	adrp	x16, 5c000 <__do_global_dtors_aux_fini_array_entry+0x14e8>
    3e04:	f9474611 	ldr	x17, [x16, #3720]
    3e08:	913a2210 	add	x16, x16, #0xe88
    3e0c:	d61f0220 	br	x17

0000000000003e10 <pthread_attr_destroy@plt>:
    3e10:	b00002d0 	adrp	x16, 5c000 <__do_global_dtors_aux_fini_array_entry+0x14e8>
    3e14:	f9474a11 	ldr	x17, [x16, #3728]
    3e18:	913a4210 	add	x16, x16, #0xe90
    3e1c:	d61f0220 	br	x17

0000000000003e20 <memset@plt>:
    3e20:	b00002d0 	adrp	x16, 5c000 <__do_global_dtors_aux_fini_array_entry+0x14e8>
    3e24:	f9474e11 	ldr	x17, [x16, #3736]
    3e28:	913a6210 	add	x16, x16, #0xe98
    3e2c:	d61f0220 	br	x17

0000000000003e30 <_Unwind_GetIPInfo@plt>:
    3e30:	b00002d0 	adrp	x16, 5c000 <__do_global_dtors_aux_fini_array_entry+0x14e8>
    3e34:	f9475211 	ldr	x17, [x16, #3744]
    3e38:	913a8210 	add	x16, x16, #0xea0
    3e3c:	d61f0220 	br	x17

0000000000003e40 <lseek64@plt>:
    3e40:	b00002d0 	adrp	x16, 5c000 <__do_global_dtors_aux_fini_array_entry+0x14e8>
    3e44:	f9475611 	ldr	x17, [x16, #3752]
    3e48:	913aa210 	add	x16, x16, #0xea8
    3e4c:	d61f0220 	br	x17

0000000000003e50 <posix_memalign@plt>:
    3e50:	b00002d0 	adrp	x16, 5c000 <__do_global_dtors_aux_fini_array_entry+0x14e8>
    3e54:	f9475a11 	ldr	x17, [x16, #3760]
    3e58:	913ac210 	add	x16, x16, #0xeb0
    3e5c:	d61f0220 	br	x17

0000000000003e60 <_Unwind_GetLanguageSpecificData@plt>:
    3e60:	b00002d0 	adrp	x16, 5c000 <__do_global_dtors_aux_fini_array_entry+0x14e8>
    3e64:	f9475e11 	ldr	x17, [x16, #3768]
    3e68:	913ae210 	add	x16, x16, #0xeb8
    3e6c:	d61f0220 	br	x17

0000000000003e70 <calloc@plt>:
    3e70:	b00002d0 	adrp	x16, 5c000 <__do_global_dtors_aux_fini_array_entry+0x14e8>
    3e74:	f9476211 	ldr	x17, [x16, #3776]
    3e78:	913b0210 	add	x16, x16, #0xec0
    3e7c:	d61f0220 	br	x17

0000000000003e80 <bcmp@plt>:
    3e80:	b00002d0 	adrp	x16, 5c000 <__do_global_dtors_aux_fini_array_entry+0x14e8>
    3e84:	f9476611 	ldr	x17, [x16, #3784]
    3e88:	913b2210 	add	x16, x16, #0xec8
    3e8c:	d61f0220 	br	x17

0000000000003e90 <realloc@plt>:
    3e90:	b00002d0 	adrp	x16, 5c000 <__do_global_dtors_aux_fini_array_entry+0x14e8>
    3e94:	f9476a11 	ldr	x17, [x16, #3792]
    3e98:	913b4210 	add	x16, x16, #0xed0
    3e9c:	d61f0220 	br	x17

0000000000003ea0 <close@plt>:
    3ea0:	b00002d0 	adrp	x16, 5c000 <__do_global_dtors_aux_fini_array_entry+0x14e8>
    3ea4:	f9476e11 	ldr	x17, [x16, #3800]
    3ea8:	913b6210 	add	x16, x16, #0xed8
    3eac:	d61f0220 	br	x17

0000000000003eb0 <sigaction@plt>:
    3eb0:	b00002d0 	adrp	x16, 5c000 <__do_global_dtors_aux_fini_array_entry+0x14e8>
    3eb4:	f9477211 	ldr	x17, [x16, #3808]
    3eb8:	913b8210 	add	x16, x16, #0xee0
    3ebc:	d61f0220 	br	x17

0000000000003ec0 <pthread_attr_getstack@plt>:
    3ec0:	b00002d0 	adrp	x16, 5c000 <__do_global_dtors_aux_fini_array_entry+0x14e8>
    3ec4:	f9477611 	ldr	x17, [x16, #3816]
    3ec8:	913ba210 	add	x16, x16, #0xee8
    3ecc:	d61f0220 	br	x17

0000000000003ed0 <__gmon_start__@plt>:
    3ed0:	b00002d0 	adrp	x16, 5c000 <__do_global_dtors_aux_fini_array_entry+0x14e8>
    3ed4:	f9477a11 	ldr	x17, [x16, #3824]
    3ed8:	913bc210 	add	x16, x16, #0xef0
    3edc:	d61f0220 	br	x17

0000000000003ee0 <write@plt>:
    3ee0:	b00002d0 	adrp	x16, 5c000 <__do_global_dtors_aux_fini_array_entry+0x14e8>
    3ee4:	f9477e11 	ldr	x17, [x16, #3832]
    3ee8:	913be210 	add	x16, x16, #0xef8
    3eec:	d61f0220 	br	x17

0000000000003ef0 <abort@plt>:
    3ef0:	b00002d0 	adrp	x16, 5c000 <__do_global_dtors_aux_fini_array_entry+0x14e8>
    3ef4:	f9478211 	ldr	x17, [x16, #3840]
    3ef8:	913c0210 	add	x16, x16, #0xf00
    3efc:	d61f0220 	br	x17

0000000000003f00 <_Unwind_GetIP@plt>:
    3f00:	b00002d0 	adrp	x16, 5c000 <__do_global_dtors_aux_fini_array_entry+0x14e8>
    3f04:	f9478611 	ldr	x17, [x16, #3848]
    3f08:	913c2210 	add	x16, x16, #0xf08
    3f0c:	d61f0220 	br	x17

0000000000003f10 <dl_iterate_phdr@plt>:
    3f10:	b00002d0 	adrp	x16, 5c000 <__do_global_dtors_aux_fini_array_entry+0x14e8>
    3f14:	f9478a11 	ldr	x17, [x16, #3856]
    3f18:	913c4210 	add	x16, x16, #0xf10
    3f1c:	d61f0220 	br	x17

0000000000003f20 <free@plt>:
    3f20:	b00002d0 	adrp	x16, 5c000 <__do_global_dtors_aux_fini_array_entry+0x14e8>
    3f24:	f9478e11 	ldr	x17, [x16, #3864]
    3f28:	913c6210 	add	x16, x16, #0xf18
    3f2c:	d61f0220 	br	x17

0000000000003f30 <statx@plt>:
    3f30:	b00002d0 	adrp	x16, 5c000 <__do_global_dtors_aux_fini_array_entry+0x14e8>
    3f34:	f9479211 	ldr	x17, [x16, #3872]
    3f38:	913c8210 	add	x16, x16, #0xf20
    3f3c:	d61f0220 	br	x17

0000000000003f40 <_Unwind_GetDataRelBase@plt>:
    3f40:	b00002d0 	adrp	x16, 5c000 <__do_global_dtors_aux_fini_array_entry+0x14e8>
    3f44:	f9479611 	ldr	x17, [x16, #3880]
    3f48:	913ca210 	add	x16, x16, #0xf28
    3f4c:	d61f0220 	br	x17

0000000000003f50 <_Unwind_SetGR@plt>:
    3f50:	b00002d0 	adrp	x16, 5c000 <__do_global_dtors_aux_fini_array_entry+0x14e8>
    3f54:	f9479a11 	ldr	x17, [x16, #3888]
    3f58:	913cc210 	add	x16, x16, #0xf30
    3f5c:	d61f0220 	br	x17

0000000000003f60 <fcntl@plt>:
    3f60:	b00002d0 	adrp	x16, 5c000 <__do_global_dtors_aux_fini_array_entry+0x14e8>
    3f64:	f9479e11 	ldr	x17, [x16, #3896]
    3f68:	913ce210 	add	x16, x16, #0xf38
    3f6c:	d61f0220 	br	x17

0000000000003f70 <wait@plt>:
    3f70:	b00002d0 	adrp	x16, 5c000 <__do_global_dtors_aux_fini_array_entry+0x14e8>
    3f74:	f947a211 	ldr	x17, [x16, #3904]
    3f78:	913d0210 	add	x16, x16, #0xf40
    3f7c:	d61f0220 	br	x17

0000000000003f80 <munmap@plt>:
    3f80:	b00002d0 	adrp	x16, 5c000 <__do_global_dtors_aux_fini_array_entry+0x14e8>
    3f84:	f947a611 	ldr	x17, [x16, #3912]
    3f88:	913d2210 	add	x16, x16, #0xf48
    3f8c:	d61f0220 	br	x17

0000000000003f90 <read@plt>:
    3f90:	b00002d0 	adrp	x16, 5c000 <__do_global_dtors_aux_fini_array_entry+0x14e8>
    3f94:	f947aa11 	ldr	x17, [x16, #3920]
    3f98:	913d4210 	add	x16, x16, #0xf50
    3f9c:	d61f0220 	br	x17

0000000000003fa0 <sysconf@plt>:
    3fa0:	b00002d0 	adrp	x16, 5c000 <__do_global_dtors_aux_fini_array_entry+0x14e8>
    3fa4:	f947ae11 	ldr	x17, [x16, #3928]
    3fa8:	913d6210 	add	x16, x16, #0xf58
    3fac:	d61f0220 	br	x17

0000000000003fb0 <open64@plt>:
    3fb0:	b00002d0 	adrp	x16, 5c000 <__do_global_dtors_aux_fini_array_entry+0x14e8>
    3fb4:	f947b211 	ldr	x17, [x16, #3936]
    3fb8:	913d8210 	add	x16, x16, #0xf60
    3fbc:	d61f0220 	br	x17

0000000000003fc0 <realpath@plt>:
    3fc0:	b00002d0 	adrp	x16, 5c000 <__do_global_dtors_aux_fini_array_entry+0x14e8>
    3fc4:	f947b611 	ldr	x17, [x16, #3944]
    3fc8:	913da210 	add	x16, x16, #0xf68
    3fcc:	d61f0220 	br	x17

0000000000003fd0 <fstat64@plt>:
    3fd0:	b00002d0 	adrp	x16, 5c000 <__do_global_dtors_aux_fini_array_entry+0x14e8>
    3fd4:	f947ba11 	ldr	x17, [x16, #3952]
    3fd8:	913dc210 	add	x16, x16, #0xf70
    3fdc:	d61f0220 	br	x17

0000000000003fe0 <pthread_self@plt>:
    3fe0:	b00002d0 	adrp	x16, 5c000 <__do_global_dtors_aux_fini_array_entry+0x14e8>
    3fe4:	f947be11 	ldr	x17, [x16, #3960]
    3fe8:	913de210 	add	x16, x16, #0xf78
    3fec:	d61f0220 	br	x17

0000000000003ff0 <_Unwind_DeleteException@plt>:
    3ff0:	b00002d0 	adrp	x16, 5c000 <__do_global_dtors_aux_fini_array_entry+0x14e8>
    3ff4:	f947c211 	ldr	x17, [x16, #3968]
    3ff8:	913e0210 	add	x16, x16, #0xf80
    3ffc:	d61f0220 	br	x17

0000000000004000 <__errno_location@plt>:
    4000:	900002d0 	adrp	x16, 5c000 <__do_global_dtors_aux_fini_array_entry+0x14e8>
    4004:	f947c611 	ldr	x17, [x16, #3976]
    4008:	913e2210 	add	x16, x16, #0xf88
    400c:	d61f0220 	br	x17

0000000000004010 <mmap64@plt>:
    4010:	900002d0 	adrp	x16, 5c000 <__do_global_dtors_aux_fini_array_entry+0x14e8>
    4014:	f947ca11 	ldr	x17, [x16, #3984]
    4018:	913e4210 	add	x16, x16, #0xf90
    401c:	d61f0220 	br	x17

0000000000004020 <getenv@plt>:
    4020:	900002d0 	adrp	x16, 5c000 <__do_global_dtors_aux_fini_array_entry+0x14e8>
    4024:	f947ce11 	ldr	x17, [x16, #3992]
    4028:	913e6210 	add	x16, x16, #0xf98
    402c:	d61f0220 	br	x17

0000000000004030 <_Unwind_Resume@plt>:
    4030:	900002d0 	adrp	x16, 5c000 <__do_global_dtors_aux_fini_array_entry+0x14e8>
    4034:	f947d211 	ldr	x17, [x16, #4000]
    4038:	913e8210 	add	x16, x16, #0xfa0
    403c:	d61f0220 	br	x17

0000000000004040 <mprotect@plt>:
    4040:	900002d0 	adrp	x16, 5c000 <__do_global_dtors_aux_fini_array_entry+0x14e8>
    4044:	f947d611 	ldr	x17, [x16, #4008]
    4048:	913ea210 	add	x16, x16, #0xfa8
    404c:	d61f0220 	br	x17

0000000000004050 <syscall@plt>:
    4050:	900002d0 	adrp	x16, 5c000 <__do_global_dtors_aux_fini_array_entry+0x14e8>
    4054:	f947da11 	ldr	x17, [x16, #4016]
    4058:	913ec210 	add	x16, x16, #0xfb0
    405c:	d61f0220 	br	x17

0000000000004060 <_Unwind_SetIP@plt>:
    4060:	900002d0 	adrp	x16, 5c000 <__do_global_dtors_aux_fini_array_entry+0x14e8>
    4064:	f947de11 	ldr	x17, [x16, #4024]
    4068:	913ee210 	add	x16, x16, #0xfb8
    406c:	d61f0220 	br	x17

Disassembly of section .text:

0000000000004080 <_ZN5alloc7raw_vec20RawVecInner$LT$A$GT$7reserve21do_reserve_and_handle17h35b8febad3e418c4E>:
    4080:	a9bf7bfd 	stp	x29, x30, [sp, #-16]!
    4084:	910003fd 	mov	x29, sp
    4088:	52800023 	mov	w3, #0x1                   	// #1
    408c:	52800024 	mov	w4, #0x1                   	// #1
    4090:	94003175 	bl	10664 <_ZN5alloc7raw_vec20RawVecInner$LT$A$GT$14grow_amortized17h29de543ef8ea0fb4E>
    4094:	b24107e8 	mov	x8, #0x8000000000000001    	// #-9223372036854775807
    4098:	eb08001f 	cmp	x0, x8
    409c:	54000061 	b.ne	40a8 <_ZN5alloc7raw_vec20RawVecInner$LT$A$GT$7reserve21do_reserve_and_handle17h35b8febad3e418c4E+0x28>  // b.any
    40a0:	a8c17bfd 	ldp	x29, x30, [sp], #16
    40a4:	d65f03c0 	ret
    40a8:	94000001 	bl	40ac <_ZN5alloc7raw_vec12handle_error17hbfb8377505525b80E>

00000000000040ac <_ZN5alloc7raw_vec12handle_error17hbfb8377505525b80E>:
    40ac:	a9bf7bfd 	stp	x29, x30, [sp, #-16]!
    40b0:	910003fd 	mov	x29, sp
    40b4:	b5000040 	cbnz	x0, 40bc <_ZN5alloc7raw_vec12handle_error17hbfb8377505525b80E+0x10>
    40b8:	94000008 	bl	40d8 <_ZN5alloc7raw_vec17capacity_overflow17h23eb73f0eae3a49dE>
    40bc:	94000001 	bl	40c0 <_ZN5alloc5alloc18handle_alloc_error17he33c80bc22c8a8d7E>

00000000000040c0 <_ZN5alloc5alloc18handle_alloc_error17he33c80bc22c8a8d7E>:
    40c0:	a9bf7bfd 	stp	x29, x30, [sp, #-16]!
    40c4:	910003fd 	mov	x29, sp
    40c8:	aa0003e8 	mov	x8, x0
    40cc:	aa0103e0 	mov	x0, x1
    40d0:	aa0803e1 	mov	x1, x8
    40d4:	94001080 	bl	82d4 <_RNvCsiGVaDesi5rv_7___rustc26___rust_alloc_error_handler>

00000000000040d8 <_ZN5alloc7raw_vec17capacity_overflow17h23eb73f0eae3a49dE>:
    40d8:	d10103ff 	sub	sp, sp, #0x40
    40dc:	a9037bfd 	stp	x29, x30, [sp, #48]
    40e0:	9100c3fd 	add	x29, sp, #0x30
    40e4:	d00002a8 	adrp	x8, 5a000 <GCC_except_table432+0x10218>
    40e8:	91302108 	add	x8, x8, #0xc08
    40ec:	52800029 	mov	w9, #0x1                   	// #1
    40f0:	a90027e8 	stp	x8, x9, [sp]
    40f4:	52800108 	mov	w8, #0x8                   	// #8
    40f8:	d00002a1 	adrp	x1, 5a000 <GCC_except_table432+0x10218>
    40fc:	91306021 	add	x1, x1, #0xc18
    4100:	910003e0 	mov	x0, sp
    4104:	a901ffff 	stp	xzr, xzr, [sp, #24]
    4108:	f9000be8 	str	x8, [sp, #16]
    410c:	94000099 	bl	4370 <_ZN4core9panicking9panic_fmt17ha1b8843c59fc39d4E>

0000000000004110 <_ZN5alloc7raw_vec20RawVecInner$LT$A$GT$7reserve21do_reserve_and_handle17h8e986941c7277e71E>:
    4110:	d10103ff 	sub	sp, sp, #0x40
    4114:	a9027bfd 	stp	x29, x30, [sp, #32]
    4118:	a9034ff4 	stp	x20, x19, [sp, #48]
    411c:	910083fd 	add	x29, sp, #0x20
    4120:	ab010048 	adds	x8, x2, x1
    4124:	540002a2 	b.cs	4178 <_ZN5alloc7raw_vec20RawVecInner$LT$A$GT$7reserve21do_reserve_and_handle17h8e986941c7277e71E+0x68>  // b.hs, b.nlast
    4128:	a9400801 	ldp	x1, x2, [x0]
    412c:	aa0003f3 	mov	x19, x0
    4130:	910023e0 	add	x0, sp, #0x8
    4134:	d37ff829 	lsl	x9, x1, #1
    4138:	eb09011f 	cmp	x8, x9
    413c:	9a898108 	csel	x8, x8, x9, hi  // hi = pmore
    4140:	52800109 	mov	w9, #0x8                   	// #8
    4144:	f100211f 	cmp	x8, #0x8
    4148:	9a898114 	csel	x20, x8, x9, hi  // hi = pmore
    414c:	aa1403e3 	mov	x3, x20
    4150:	9400000e 	bl	4188 <_ZN5alloc7raw_vec20RawVecInner$LT$A$GT$11finish_grow17h886678797f2e1ed8E>
    4154:	b9400be8 	ldr	w8, [sp, #8]
    4158:	7100051f 	cmp	w8, #0x1
    415c:	54000120 	b.eq	4180 <_ZN5alloc7raw_vec20RawVecInner$LT$A$GT$7reserve21do_reserve_and_handle17h8e986941c7277e71E+0x70>  // b.none
    4160:	f9400be8 	ldr	x8, [sp, #16]
    4164:	a9002274 	stp	x20, x8, [x19]
    4168:	a9434ff4 	ldp	x20, x19, [sp, #48]
    416c:	a9427bfd 	ldp	x29, x30, [sp, #32]
    4170:	910103ff 	add	sp, sp, #0x40
    4174:	d65f03c0 	ret
    4178:	aa1f03e0 	mov	x0, xzr
    417c:	97ffffcc 	bl	40ac <_ZN5alloc7raw_vec12handle_error17hbfb8377505525b80E>
    4180:	a94107e0 	ldp	x0, x1, [sp, #16]
    4184:	97ffffca 	bl	40ac <_ZN5alloc7raw_vec12handle_error17hbfb8377505525b80E>

0000000000004188 <_ZN5alloc7raw_vec20RawVecInner$LT$A$GT$11finish_grow17h886678797f2e1ed8E>:
    4188:	a9be7bfd 	stp	x29, x30, [sp, #-32]!
    418c:	a9014ff4 	stp	x20, x19, [sp, #16]
    4190:	910003fd 	mov	x29, sp
    4194:	aa0003f4 	mov	x20, x0
    4198:	b6f80103 	tbz	x3, #63, 41b8 <_ZN5alloc7raw_vec20RawVecInner$LT$A$GT$11finish_grow17h886678797f2e1ed8E+0x30>
    419c:	52800028 	mov	w8, #0x1                   	// #1
    41a0:	52800109 	mov	w9, #0x8                   	// #8
    41a4:	f8296a9f 	str	xzr, [x20, x9]
    41a8:	f9000288 	str	x8, [x20]
    41ac:	a9414ff4 	ldp	x20, x19, [sp, #16]
    41b0:	a8c27bfd 	ldp	x29, x30, [sp], #32
    41b4:	d65f03c0 	ret
    41b8:	aa0303f3 	mov	x19, x3
    41bc:	b40001a1 	cbz	x1, 41f0 <_ZN5alloc7raw_vec20RawVecInner$LT$A$GT$11finish_grow17h886678797f2e1ed8E+0x68>
    41c0:	aa0203e0 	mov	x0, x2
    41c4:	52800022 	mov	w2, #0x1                   	// #1
    41c8:	aa1303e3 	mov	x3, x19
    41cc:	94001496 	bl	9424 <_RNvCsiGVaDesi5rv_7___rustc14___rust_realloc>
    41d0:	b4000180 	cbz	x0, 4200 <_ZN5alloc7raw_vec20RawVecInner$LT$A$GT$11finish_grow17h886678797f2e1ed8E+0x78>
    41d4:	f9000680 	str	x0, [x20, #8]
    41d8:	52800209 	mov	w9, #0x10                  	// #16
    41dc:	f8296a93 	str	x19, [x20, x9]
    41e0:	f900029f 	str	xzr, [x20]
    41e4:	a9414ff4 	ldp	x20, x19, [sp, #16]
    41e8:	a8c27bfd 	ldp	x29, x30, [sp], #32
    41ec:	d65f03c0 	ret
    41f0:	aa1303e0 	mov	x0, x19
    41f4:	52800021 	mov	w1, #0x1                   	// #1
    41f8:	94001478 	bl	93d8 <_RNvCsiGVaDesi5rv_7___rustc12___rust_alloc>
    41fc:	b5fffec0 	cbnz	x0, 41d4 <_ZN5alloc7raw_vec20RawVecInner$LT$A$GT$11finish_grow17h886678797f2e1ed8E+0x4c>
    4200:	52800028 	mov	w8, #0x1                   	// #1
    4204:	f9000688 	str	x8, [x20, #8]
    4208:	52800209 	mov	w9, #0x10                  	// #16
    420c:	f8296a93 	str	x19, [x20, x9]
    4210:	f9000288 	str	x8, [x20]
    4214:	a9414ff4 	ldp	x20, x19, [sp, #16]
    4218:	a8c27bfd 	ldp	x29, x30, [sp], #32
    421c:	d65f03c0 	ret

0000000000004220 <_ZN4core6option13unwrap_failed17he309480dafb93b83E>:
    4220:	a9bf7bfd 	stp	x29, x30, [sp, #-16]!
    4224:	910003fd 	mov	x29, sp
    4228:	aa0003e2 	mov	x2, x0
    422c:	d00001c0 	adrp	x0, 3e000 <_ZN4core3num7flt2dec8strategy5grisu12CACHED_POW1017h4c0caebbb6c2e83aE+0x300>
    4230:	9117ec00 	add	x0, x0, #0x5fb
    4234:	52800561 	mov	w1, #0x2b                  	// #43
    4238:	94000056 	bl	4390 <_ZN4core9panicking5panic17h8f97f781c7719c2fE>

000000000000423c <_ZN4core5slice5index16slice_index_fail17hfd1b153dd86c29eaE>:
    423c:	a9bf7bfd 	stp	x29, x30, [sp, #-16]!
    4240:	910003fd 	mov	x29, sp
    4244:	eb02001f 	cmp	x0, x2
    4248:	54000089 	b.ls	4258 <_ZN4core5slice5index16slice_index_fail17hfd1b153dd86c29eaE+0x1c>  // b.plast
    424c:	aa0203e1 	mov	x1, x2
    4250:	aa0303e2 	mov	x2, x3
    4254:	9400000b 	bl	4280 <_ZN4core5slice5index16slice_index_fail8do_panic7runtime17h61efe9f45194b03fE>
    4258:	eb02003f 	cmp	x1, x2
    425c:	540000a8 	b.hi	4270 <_ZN4core5slice5index16slice_index_fail17hfd1b153dd86c29eaE+0x34>  // b.pmore
    4260:	eb01001f 	cmp	x0, x1
    4264:	54000069 	b.ls	4270 <_ZN4core5slice5index16slice_index_fail17hfd1b153dd86c29eaE+0x34>  // b.plast
    4268:	aa0303e2 	mov	x2, x3
    426c:	9400002d 	bl	4320 <_ZN4core5slice5index16slice_index_fail8do_panic7runtime17h3ebd004ca131dda5E>
    4270:	aa0103e0 	mov	x0, x1
    4274:	aa0203e1 	mov	x1, x2
    4278:	aa0303e2 	mov	x2, x3
    427c:	94000015 	bl	42d0 <_ZN4core5slice5index16slice_index_fail8do_panic7runtime17h09b34b43c6b54f10E>

0000000000004280 <_ZN4core5slice5index16slice_index_fail8do_panic7runtime17h61efe9f45194b03fE>:
    4280:	d101c3ff 	sub	sp, sp, #0x70
    4284:	a9067bfd 	stp	x29, x30, [sp, #96]
    4288:	910183fd 	add	x29, sp, #0x60
    428c:	910003e8 	mov	x8, sp
    4290:	d0000049 	adrp	x9, e000 <_ZN4core3fmt5float32float_to_decimal_common_shortest17ha2dadd441e81ebeaE+0x8cc>
    4294:	913c6129 	add	x9, x9, #0xf18
    4298:	a93e27a8 	stp	x8, x9, [x29, #-32]
    429c:	910023e8 	add	x8, sp, #0x8
    42a0:	a93f27a8 	stp	x8, x9, [x29, #-16]
    42a4:	f00002a8 	adrp	x8, 5b000 <__do_global_dtors_aux_fini_array_entry+0x4e8>
    42a8:	91040108 	add	x8, x8, #0x100
    42ac:	52800049 	mov	w9, #0x2                   	// #2
    42b0:	a90007e0 	stp	x0, x1, [sp]
    42b4:	910043e0 	add	x0, sp, #0x10
    42b8:	a90127e8 	stp	x8, x9, [sp, #16]
    42bc:	d10083a8 	sub	x8, x29, #0x20
    42c0:	aa0203e1 	mov	x1, x2
    42c4:	a902ffe9 	stp	x9, xzr, [sp, #40]
    42c8:	f90013e8 	str	x8, [sp, #32]
    42cc:	94000029 	bl	4370 <_ZN4core9panicking9panic_fmt17ha1b8843c59fc39d4E>

00000000000042d0 <_ZN4core5slice5index16slice_index_fail8do_panic7runtime17h09b34b43c6b54f10E>:
    42d0:	d101c3ff 	sub	sp, sp, #0x70
    42d4:	a9067bfd 	stp	x29, x30, [sp, #96]
    42d8:	910183fd 	add	x29, sp, #0x60
    42dc:	910003e8 	mov	x8, sp
    42e0:	d0000049 	adrp	x9, e000 <_ZN4core3fmt5float32float_to_decimal_common_shortest17ha2dadd441e81ebeaE+0x8cc>
    42e4:	913c6129 	add	x9, x9, #0xf18
    42e8:	a93e27a8 	stp	x8, x9, [x29, #-32]
    42ec:	910023e8 	add	x8, sp, #0x8
    42f0:	a93f27a8 	stp	x8, x9, [x29, #-16]
    42f4:	f00002a8 	adrp	x8, 5b000 <__do_global_dtors_aux_fini_array_entry+0x4e8>
    42f8:	91030108 	add	x8, x8, #0xc0
    42fc:	52800049 	mov	w9, #0x2                   	// #2
    4300:	a90007e0 	stp	x0, x1, [sp]
    4304:	910043e0 	add	x0, sp, #0x10
    4308:	a90127e8 	stp	x8, x9, [sp, #16]
    430c:	d10083a8 	sub	x8, x29, #0x20
    4310:	aa0203e1 	mov	x1, x2
    4314:	a902ffe9 	stp	x9, xzr, [sp, #40]
    4318:	f90013e8 	str	x8, [sp, #32]
    431c:	94000015 	bl	4370 <_ZN4core9panicking9panic_fmt17ha1b8843c59fc39d4E>

0000000000004320 <_ZN4core5slice5index16slice_index_fail8do_panic7runtime17h3ebd004ca131dda5E>:
    4320:	d101c3ff 	sub	sp, sp, #0x70
    4324:	a9067bfd 	stp	x29, x30, [sp, #96]
    4328:	910183fd 	add	x29, sp, #0x60
    432c:	910003e8 	mov	x8, sp
    4330:	d0000049 	adrp	x9, e000 <_ZN4core3fmt5float32float_to_decimal_common_shortest17ha2dadd441e81ebeaE+0x8cc>
    4334:	913c6129 	add	x9, x9, #0xf18
    4338:	a93e27a8 	stp	x8, x9, [x29, #-32]
    433c:	910023e8 	add	x8, sp, #0x8
    4340:	a93f27a8 	stp	x8, x9, [x29, #-16]
    4344:	f00002a8 	adrp	x8, 5b000 <__do_global_dtors_aux_fini_array_entry+0x4e8>
    4348:	91038108 	add	x8, x8, #0xe0
    434c:	52800049 	mov	w9, #0x2                   	// #2
    4350:	a90007e0 	stp	x0, x1, [sp]
    4354:	910043e0 	add	x0, sp, #0x10
    4358:	a90127e8 	stp	x8, x9, [sp, #16]
    435c:	d10083a8 	sub	x8, x29, #0x20
    4360:	aa0203e1 	mov	x1, x2
    4364:	a902ffe9 	stp	x9, xzr, [sp, #40]
    4368:	f90013e8 	str	x8, [sp, #32]
    436c:	94000001 	bl	4370 <_ZN4core9panicking9panic_fmt17ha1b8843c59fc39d4E>

0000000000004370 <_ZN4core9panicking9panic_fmt17ha1b8843c59fc39d4E>:
    4370:	d100c3ff 	sub	sp, sp, #0x30
    4374:	a9027bfd 	stp	x29, x30, [sp, #32]
    4378:	910083fd 	add	x29, sp, #0x20
    437c:	52800028 	mov	w8, #0x1                   	// #1
    4380:	a90087e0 	stp	x0, x1, [sp, #8]
    4384:	910023e0 	add	x0, sp, #0x8
    4388:	790033e8 	strh	w8, [sp, #24]
    438c:	9400cbd3 	bl	372d8 <_RNvCsiGVaDesi5rv_7___rustc17rust_begin_unwind>

0000000000004390 <_ZN4core9panicking5panic17h8f97f781c7719c2fE>:
    4390:	d10143ff 	sub	sp, sp, #0x50
    4394:	a9047bfd 	stp	x29, x30, [sp, #64]
    4398:	910103fd 	add	x29, sp, #0x40
    439c:	d10043a8 	sub	x8, x29, #0x10
    43a0:	52800029 	mov	w9, #0x1                   	// #1
    43a4:	a93f07a0 	stp	x0, x1, [x29, #-16]
    43a8:	a90027e8 	stp	x8, x9, [sp]
    43ac:	52800108 	mov	w8, #0x8                   	// #8
    43b0:	910003e0 	mov	x0, sp
    43b4:	aa0203e1 	mov	x1, x2
    43b8:	a901ffff 	stp	xzr, xzr, [sp, #24]
    43bc:	f9000be8 	str	x8, [sp, #16]
    43c0:	97ffffec 	bl	4370 <_ZN4core9panicking9panic_fmt17ha1b8843c59fc39d4E>

00000000000043c4 <_ZN4core3str16slice_error_fail17hff195e921ddd59b3E>:
    43c4:	a9bf7bfd 	stp	x29, x30, [sp, #-16]!
    43c8:	910003fd 	mov	x29, sp
    43cc:	94001a8f 	bl	ae08 <_ZN4core3str19slice_error_fail_rt17h63cf3f1534a08624E>

00000000000043d0 <_ZN4core9panicking11panic_const23panic_const_div_by_zero17h077f55170e23fb59E>:
    43d0:	d10103ff 	sub	sp, sp, #0x40
    43d4:	a9037bfd 	stp	x29, x30, [sp, #48]
    43d8:	9100c3fd 	add	x29, sp, #0x30
    43dc:	f00002a8 	adrp	x8, 5b000 <__do_global_dtors_aux_fini_array_entry+0x4e8>
    43e0:	91060108 	add	x8, x8, #0x180
    43e4:	52800029 	mov	w9, #0x1                   	// #1
    43e8:	aa0003e1 	mov	x1, x0
    43ec:	a90027e8 	stp	x8, x9, [sp]
    43f0:	52800108 	mov	w8, #0x8                   	// #8
    43f4:	910003e0 	mov	x0, sp
    43f8:	a901ffff 	stp	xzr, xzr, [sp, #24]
    43fc:	f9000be8 	str	x8, [sp, #16]
    4400:	97ffffdc 	bl	4370 <_ZN4core9panicking9panic_fmt17ha1b8843c59fc39d4E>

0000000000004404 <_ZN4core9panicking18panic_bounds_check17h03a102694e080f49E>:
    4404:	d101c3ff 	sub	sp, sp, #0x70
    4408:	a9067bfd 	stp	x29, x30, [sp, #96]
    440c:	910183fd 	add	x29, sp, #0x60
    4410:	910023e8 	add	x8, sp, #0x8
    4414:	d0000049 	adrp	x9, e000 <_ZN4core3fmt5float32float_to_decimal_common_shortest17ha2dadd441e81ebeaE+0x8cc>
    4418:	913c6129 	add	x9, x9, #0xf18
    441c:	a93e27a8 	stp	x8, x9, [x29, #-32]
    4420:	910003e8 	mov	x8, sp
    4424:	a93f27a8 	stp	x8, x9, [x29, #-16]
    4428:	f00002a8 	adrp	x8, 5b000 <__do_global_dtors_aux_fini_array_entry+0x4e8>
    442c:	91076108 	add	x8, x8, #0x1d8
    4430:	52800049 	mov	w9, #0x2                   	// #2
    4434:	a90007e0 	stp	x0, x1, [sp]
    4438:	910043e0 	add	x0, sp, #0x10
    443c:	a90127e8 	stp	x8, x9, [sp, #16]
    4440:	d10083a8 	sub	x8, x29, #0x20
    4444:	aa0203e1 	mov	x1, x2
    4448:	a902ffe9 	stp	x9, xzr, [sp, #40]
    444c:	f90013e8 	str	x8, [sp, #32]
    4450:	97ffffc8 	bl	4370 <_ZN4core9panicking9panic_fmt17ha1b8843c59fc39d4E>

0000000000004454 <_ZN4core9panicking13assert_failed17h819ebe29ecad3812E>:
    4454:	d10083ff 	sub	sp, sp, #0x20
    4458:	a9017bfd 	stp	x29, x30, [sp, #16]
    445c:	910043fd 	add	x29, sp, #0x10
    4460:	a90007e0 	stp	x0, x1, [sp]
    4464:	f00002a1 	adrp	x1, 5b000 <__do_global_dtors_aux_fini_array_entry+0x4e8>
    4468:	91068021 	add	x1, x1, #0x1a0
    446c:	aa0203e4 	mov	x4, x2
    4470:	d00002a5 	adrp	x5, 5a000 <GCC_except_table432+0x10218>
    4474:	913c60a5 	add	x5, x5, #0xf18
    4478:	9400de45 	bl	3bd8c <OUTLINED_FUNCTION_34>

000000000000447c <_ZN4core9panicking19assert_failed_inner17h76bca04b11872de5E>:
    447c:	d10383ff 	sub	sp, sp, #0xe0
    4480:	a90d7bfd 	stp	x29, x30, [sp, #208]
    4484:	910343fd 	add	x29, sp, #0xd0
    4488:	f9400089 	ldr	x9, [x4]
    448c:	d00001c8 	adrp	x8, 3e000 <_ZN4core3num7flt2dec8strategy5grisu12CACHED_POW1017h4c0caebbb6c2e83aE+0x300>
    4490:	9134a108 	add	x8, x8, #0xd28
    4494:	5280004a 	mov	w10, #0x2                   	// #2
    4498:	a90007e0 	stp	x0, x1, [sp]
    449c:	a9010fe2 	stp	x2, x3, [sp, #16]
    44a0:	a9022be8 	stp	x8, x10, [sp, #32]
    44a4:	b50001e9 	cbnz	x9, 44e0 <_ZN4core9panicking19assert_failed_inner17h76bca04b11872de5E+0x64>
    44a8:	910083e8 	add	x8, sp, #0x20
    44ac:	f0000029 	adrp	x9, b000 <_ZN4core3str19slice_error_fail_rt17h63cf3f1534a08624E+0x1f8>
    44b0:	9101a129 	add	x9, x9, #0x68
    44b4:	a90627e8 	stp	x8, x9, [sp, #96]
    44b8:	910003e8 	mov	x8, sp
    44bc:	90000049 	adrp	x9, c000 <_ZN4core3num6bignum8Big32x4010mul_digits17hf3857d1e167f8f79E+0xdc>
    44c0:	91046129 	add	x9, x9, #0x118
    44c4:	a90727e8 	stp	x8, x9, [sp, #112]
    44c8:	910043e8 	add	x8, sp, #0x10
    44cc:	a90827e8 	stp	x8, x9, [sp, #128]
    44d0:	f00002a8 	adrp	x8, 5b000 <__do_global_dtors_aux_fini_array_entry+0x4e8>
    44d4:	9107e108 	add	x8, x8, #0x1f8
    44d8:	52800069 	mov	w9, #0x3                   	// #3
    44dc:	14000016 	b	4534 <_ZN4core9panicking19assert_failed_inner17h76bca04b11872de5E+0xb8>
    44e0:	910083e8 	add	x8, sp, #0x20
    44e4:	f0000029 	adrp	x9, b000 <_ZN4core3str19slice_error_fail_rt17h63cf3f1534a08624E+0x1f8>
    44e8:	9101a129 	add	x9, x9, #0x68
    44ec:	ad400480 	ldp	q0, q1, [x4]
    44f0:	a90627e8 	stp	x8, x9, [sp, #96]
    44f4:	9100c3e8 	add	x8, sp, #0x30
    44f8:	90000049 	adrp	x9, c000 <_ZN4core3num6bignum8Big32x4010mul_digits17hf3857d1e167f8f79E+0xdc>
    44fc:	91042129 	add	x9, x9, #0x108
    4500:	3dc00882 	ldr	q2, [x4, #32]
    4504:	a90727e8 	stp	x8, x9, [sp, #112]
    4508:	910003e8 	mov	x8, sp
    450c:	90000049 	adrp	x9, c000 <_ZN4core3num6bignum8Big32x4010mul_digits17hf3857d1e167f8f79E+0xdc>
    4510:	91046129 	add	x9, x9, #0x118
    4514:	ad0187e0 	stp	q0, q1, [sp, #48]
    4518:	a90827e8 	stp	x8, x9, [sp, #128]
    451c:	910043e8 	add	x8, sp, #0x10
    4520:	3d8017e2 	str	q2, [sp, #80]
    4524:	a90927e8 	stp	x8, x9, [sp, #144]
    4528:	f00002a8 	adrp	x8, 5b000 <__do_global_dtors_aux_fini_array_entry+0x4e8>
    452c:	9108a108 	add	x8, x8, #0x228
    4530:	52800089 	mov	w9, #0x4                   	// #4
    4534:	a93d27a8 	stp	x8, x9, [x29, #-48]
    4538:	910183e8 	add	x8, sp, #0x60
    453c:	d100c3a0 	sub	x0, x29, #0x30
    4540:	aa0503e1 	mov	x1, x5
    4544:	a93effa9 	stp	x9, xzr, [x29, #-24]
    4548:	f81e03a8 	stur	x8, [x29, #-32]
    454c:	97ffff89 	bl	4370 <_ZN4core9panicking9panic_fmt17ha1b8843c59fc39d4E>

0000000000004550 <_ZN4core4cell22panic_already_borrowed17hb7ea357837ba473cE>:
    4550:	a9bf7bfd 	stp	x29, x30, [sp, #-16]!
    4554:	910003fd 	mov	x29, sp
    4558:	94000001 	bl	455c <_ZN4core4cell22panic_already_borrowed8do_panic7runtime17hb5fef4952c28382fE>

000000000000455c <_ZN4core4cell22panic_already_borrowed8do_panic7runtime17hb5fef4952c28382fE>:
    455c:	d10183ff 	sub	sp, sp, #0x60
    4560:	a9057bfd 	stp	x29, x30, [sp, #80]
    4564:	910143fd 	add	x29, sp, #0x50
    4568:	d10007a8 	sub	x8, x29, #0x1
    456c:	f0000049 	adrp	x9, f000 <_ZN4core3fmt3num3imp52_$LT$impl$u20$core..fmt..Display$u20$for$u20$u64$GT$3fmt17h299bc7b9d970d7d2E+0xe8>
    4570:	9135d129 	add	x9, x9, #0xd74
    4574:	a93ea7a8 	stp	x8, x9, [x29, #-24]
    4578:	900001c8 	adrp	x8, 3c000 <__aarch64_cas4_relax>
    457c:	91180108 	add	x8, x8, #0x600
    4580:	52800029 	mov	w9, #0x1                   	// #1
    4584:	aa0003e1 	mov	x1, x0
    4588:	910023e0 	add	x0, sp, #0x8
    458c:	a900a7e8 	stp	x8, x9, [sp, #8]
    4590:	d10063a8 	sub	x8, x29, #0x18
    4594:	a9027fe9 	stp	x9, xzr, [sp, #32]
    4598:	f9000fe8 	str	x8, [sp, #24]
    459c:	97ffff75 	bl	4370 <_ZN4core9panicking9panic_fmt17ha1b8843c59fc39d4E>

00000000000045a0 <_ZN4core5slice29_$LT$impl$u20$$u5b$T$u5d$$GT$15copy_from_slice17len_mismatch_fail17h1b8b3cae0c4d9b75E>:
    45a0:	a9bf7bfd 	stp	x29, x30, [sp, #-16]!
    45a4:	910003fd 	mov	x29, sp
    45a8:	aa0003e8 	mov	x8, x0
    45ac:	aa0103e0 	mov	x0, x1
    45b0:	aa0803e1 	mov	x1, x8
    45b4:	94000001 	bl	45b8 <_ZN4core5slice29_$LT$impl$u20$$u5b$T$u5d$$GT$15copy_from_slice17len_mismatch_fail8do_panic7runtime17h8f0803cbd1df3af6E>

00000000000045b8 <_ZN4core5slice29_$LT$impl$u20$$u5b$T$u5d$$GT$15copy_from_slice17len_mismatch_fail8do_panic7runtime17h8f0803cbd1df3af6E>:
    45b8:	d101c3ff 	sub	sp, sp, #0x70
    45bc:	a9067bfd 	stp	x29, x30, [sp, #96]
    45c0:	910183fd 	add	x29, sp, #0x60
    45c4:	910003e8 	mov	x8, sp
    45c8:	d0000049 	adrp	x9, e000 <_ZN4core3fmt5float32float_to_decimal_common_shortest17ha2dadd441e81ebeaE+0x8cc>
    45cc:	913c6129 	add	x9, x9, #0xf18
    45d0:	a93e27a8 	stp	x8, x9, [x29, #-32]
    45d4:	910023e8 	add	x8, sp, #0x8
    45d8:	a93f27a8 	stp	x8, x9, [x29, #-16]
    45dc:	f00002a8 	adrp	x8, 5b000 <__do_global_dtors_aux_fini_array_entry+0x4e8>
    45e0:	9101a108 	add	x8, x8, #0x68
    45e4:	52800069 	mov	w9, #0x3                   	// #3
    45e8:	a90007e0 	stp	x0, x1, [sp]
    45ec:	f00002a1 	adrp	x1, 5b000 <__do_global_dtors_aux_fini_array_entry+0x4e8>
    45f0:	910c8021 	add	x1, x1, #0x320
    45f4:	a90127e8 	stp	x8, x9, [sp, #16]
    45f8:	d10083a8 	sub	x8, x29, #0x20
    45fc:	52800049 	mov	w9, #0x2                   	// #2
    4600:	910043e0 	add	x0, sp, #0x10
    4604:	f90013e8 	str	x8, [sp, #32]
    4608:	a902ffe9 	stp	x9, xzr, [sp, #40]
    460c:	97ffff59 	bl	4370 <_ZN4core9panicking9panic_fmt17ha1b8843c59fc39d4E>

0000000000004610 <_ZN4core5slice4sort6shared9smallsort22panic_on_ord_violation17hfc681afad1fe18a6E>:
    4610:	d10103ff 	sub	sp, sp, #0x40
    4614:	a9037bfd 	stp	x29, x30, [sp, #48]
    4618:	9100c3fd 	add	x29, sp, #0x30
    461c:	f00002a8 	adrp	x8, 5b000 <__do_global_dtors_aux_fini_array_entry+0x4e8>
    4620:	91026108 	add	x8, x8, #0x98
    4624:	52800029 	mov	w9, #0x1                   	// #1
    4628:	a90027e8 	stp	x8, x9, [sp]
    462c:	52800108 	mov	w8, #0x8                   	// #8
    4630:	f00002a1 	adrp	x1, 5b000 <__do_global_dtors_aux_fini_array_entry+0x4e8>
    4634:	9102a021 	add	x1, x1, #0xa8
    4638:	910003e0 	mov	x0, sp
    463c:	a901ffff 	stp	xzr, xzr, [sp, #24]
    4640:	f9000be8 	str	x8, [sp, #16]
    4644:	97ffff4b 	bl	4370 <_ZN4core9panicking9panic_fmt17ha1b8843c59fc39d4E>

0000000000004648 <_ZN4core6option13expect_failed17haf96b6dbacba9da9E>:
    4648:	d10183ff 	sub	sp, sp, #0x60
    464c:	a9057bfd 	stp	x29, x30, [sp, #80]
    4650:	910143fd 	add	x29, sp, #0x50
    4654:	910003e8 	mov	x8, sp
    4658:	f0000029 	adrp	x9, b000 <_ZN4core3str19slice_error_fail_rt17h63cf3f1534a08624E+0x1f8>
    465c:	9101a129 	add	x9, x9, #0x68
    4660:	a93f27a8 	stp	x8, x9, [x29, #-16]
    4664:	900001c8 	adrp	x8, 3c000 <__aarch64_cas4_relax>
    4668:	91180108 	add	x8, x8, #0x600
    466c:	52800029 	mov	w9, #0x1                   	// #1
    4670:	a90007e0 	stp	x0, x1, [sp]
    4674:	910043e0 	add	x0, sp, #0x10
    4678:	a90127e8 	stp	x8, x9, [sp, #16]
    467c:	d10043a8 	sub	x8, x29, #0x10
    4680:	aa0203e1 	mov	x1, x2
    4684:	a902ffe9 	stp	x9, xzr, [sp, #40]
    4688:	f90013e8 	str	x8, [sp, #32]
    468c:	97ffff39 	bl	4370 <_ZN4core9panicking9panic_fmt17ha1b8843c59fc39d4E>

0000000000004690 <_ZN4core6result13unwrap_failed17ha6ca66e5e9d03f71E>:
    4690:	d10203ff 	sub	sp, sp, #0x80
    4694:	a9077bfd 	stp	x29, x30, [sp, #112]
    4698:	9101c3fd 	add	x29, sp, #0x70
    469c:	910003e8 	mov	x8, sp
    46a0:	f0000029 	adrp	x9, b000 <_ZN4core3str19slice_error_fail_rt17h63cf3f1534a08624E+0x1f8>
    46a4:	9101a129 	add	x9, x9, #0x68
    46a8:	a93e27a8 	stp	x8, x9, [x29, #-32]
    46ac:	910043e8 	add	x8, sp, #0x10
    46b0:	90000049 	adrp	x9, c000 <_ZN4core3num6bignum8Big32x4010mul_digits17hf3857d1e167f8f79E+0xdc>
    46b4:	91046129 	add	x9, x9, #0x118
    46b8:	a9008be1 	stp	x1, x2, [sp, #8]
    46bc:	aa0403e1 	mov	x1, x4
    46c0:	a93f27a8 	stp	x8, x9, [x29, #-16]
    46c4:	f00002a8 	adrp	x8, 5b000 <__do_global_dtors_aux_fini_array_entry+0x4e8>
    46c8:	912c0108 	add	x8, x8, #0xb00
    46cc:	f90003e0 	str	x0, [sp]
    46d0:	52800049 	mov	w9, #0x2                   	// #2
    46d4:	910083e0 	add	x0, sp, #0x20
    46d8:	a901a3e3 	stp	x3, x8, [sp, #24]
    46dc:	d10083a8 	sub	x8, x29, #0x20
    46e0:	a903ffe9 	stp	x9, xzr, [sp, #56]
    46e4:	a902a3e9 	stp	x9, x8, [sp, #40]
    46e8:	97ffff22 	bl	4370 <_ZN4core9panicking9panic_fmt17ha1b8843c59fc39d4E>

00000000000046ec <_ZN4core9panicking11panic_const23panic_const_rem_by_zero17hca3a8d5d32897cb1E>:
    46ec:	d10103ff 	sub	sp, sp, #0x40
    46f0:	a9037bfd 	stp	x29, x30, [sp, #48]
    46f4:	9100c3fd 	add	x29, sp, #0x30
    46f8:	f00002a8 	adrp	x8, 5b000 <__do_global_dtors_aux_fini_array_entry+0x4e8>
    46fc:	91064108 	add	x8, x8, #0x190
    4700:	52800029 	mov	w9, #0x1                   	// #1
    4704:	aa0003e1 	mov	x1, x0
    4708:	a90027e8 	stp	x8, x9, [sp]
    470c:	52800108 	mov	w8, #0x8                   	// #8
    4710:	910003e0 	mov	x0, sp
    4714:	a901ffff 	stp	xzr, xzr, [sp, #24]
    4718:	f9000be8 	str	x8, [sp, #16]
    471c:	97ffff15 	bl	4370 <_ZN4core9panicking9panic_fmt17ha1b8843c59fc39d4E>

0000000000004720 <_ZN4core9panicking14panic_nounwind17heb78e2a1d0cc04e7E>:
    4720:	d10143ff 	sub	sp, sp, #0x50
    4724:	a9047bfd 	stp	x29, x30, [sp, #64]
    4728:	910103fd 	add	x29, sp, #0x40
    472c:	528004c8 	mov	w8, #0x26                  	// #38
    4730:	d10043a9 	sub	x9, x29, #0x10
    4734:	f00002a2 	adrp	x2, 5b000 <__do_global_dtors_aux_fini_array_entry+0x4e8>
    4738:	91070042 	add	x2, x2, #0x1c0
    473c:	a93f23a0 	stp	x0, x8, [x29, #-16]
    4740:	52800028 	mov	w8, #0x1                   	// #1
    4744:	a90023e9 	stp	x9, x8, [sp]
    4748:	52800108 	mov	w8, #0x8                   	// #8
    474c:	910003e0 	mov	x0, sp
    4750:	2a1f03e1 	mov	w1, wzr
    4754:	a901ffff 	stp	xzr, xzr, [sp, #24]
    4758:	f9000be8 	str	x8, [sp, #16]
    475c:	94000001 	bl	4760 <_ZN4core9panicking18panic_nounwind_fmt17he9e5c6c8f424c6f0E>

0000000000004760 <_ZN4core9panicking18panic_nounwind_fmt17he9e5c6c8f424c6f0E>:
    4760:	d10183ff 	sub	sp, sp, #0x60
    4764:	a9057bfd 	stp	x29, x30, [sp, #80]
    4768:	910143fd 	add	x29, sp, #0x50
    476c:	ad400400 	ldp	q0, q1, [x0]
    4770:	910003e8 	mov	x8, sp
    4774:	3dc00802 	ldr	q2, [x0, #32]
    4778:	a93e8ba8 	stp	x8, x2, [x29, #-24]
    477c:	381f83bf 	sturb	wzr, [x29, #-8]
    4780:	ad0007e0 	stp	q0, q1, [sp]
    4784:	3d800be2 	str	q2, [sp, #32]
    4788:	381f93a1 	sturb	w1, [x29, #-7]
    478c:	d10063a0 	sub	x0, x29, #0x18
    4790:	9400cad2 	bl	372d8 <_RNvCsiGVaDesi5rv_7___rustc17rust_begin_unwind>
    4794:	d4200020 	brk	#0x1
    4798:	94000001 	bl	479c <_ZN4core9panicking19panic_cannot_unwind17h8a18c08374a02237E>

000000000000479c <_ZN4core9panicking19panic_cannot_unwind17h8a18c08374a02237E>:
    479c:	a9bf7bfd 	stp	x29, x30, [sp, #-16]!
    47a0:	910003fd 	mov	x29, sp
    47a4:	d00001c0 	adrp	x0, 3e000 <_ZN4core3num7flt2dec8strategy5grisu12CACHED_POW1017h4c0caebbb6c2e83aE+0x300>
    47a8:	91354c00 	add	x0, x0, #0xd53
    47ac:	97ffffdd 	bl	4720 <_ZN4core9panicking14panic_nounwind17heb78e2a1d0cc04e7E>

00000000000047b0 <_ZN4core9panicking16panic_in_cleanup17h0ef2b9548e269b60E>:
    47b0:	a9bf7bfd 	stp	x29, x30, [sp, #-16]!
    47b4:	910003fd 	mov	x29, sp
    47b8:	94000001 	bl	47bc <_ZN4core9panicking26panic_nounwind_nobacktrace17hfed8b9409c85ef5dE>

00000000000047bc <_ZN4core9panicking26panic_nounwind_nobacktrace17hfed8b9409c85ef5dE>:
    47bc:	d10143ff 	sub	sp, sp, #0x50
    47c0:	a9047bfd 	stp	x29, x30, [sp, #64]
    47c4:	910103fd 	add	x29, sp, #0x40
    47c8:	d00001c8 	adrp	x8, 3e000 <_ZN4core3num7flt2dec8strategy5grisu12CACHED_POW1017h4c0caebbb6c2e83aE+0x300>
    47cc:	9132c908 	add	x8, x8, #0xcb2
    47d0:	52800489 	mov	w9, #0x24                  	// #36
    47d4:	a93f27a8 	stp	x8, x9, [x29, #-16]
    47d8:	d10043a8 	sub	x8, x29, #0x10
    47dc:	52800029 	mov	w9, #0x1                   	// #1
    47e0:	a90027e8 	stp	x8, x9, [sp]
    47e4:	52800108 	mov	w8, #0x8                   	// #8
    47e8:	f00002a2 	adrp	x2, 5b000 <__do_global_dtors_aux_fini_array_entry+0x4e8>
    47ec:	9109a042 	add	x2, x2, #0x268
    47f0:	910003e0 	mov	x0, sp
    47f4:	52800021 	mov	w1, #0x1                   	// #1
    47f8:	a901ffff 	stp	xzr, xzr, [sp, #24]
    47fc:	f9000be8 	str	x8, [sp, #16]
    4800:	97ffffd8 	bl	4760 <_ZN4core9panicking18panic_nounwind_fmt17he9e5c6c8f424c6f0E>

0000000000004804 <_ZN5alloc7raw_vec20RawVecInner$LT$A$GT$11finish_grow17ha2c1495e3d55b490E>:
    4804:	d10103ff 	sub	sp, sp, #0x40
    4808:	a9017bfd 	stp	x29, x30, [sp, #16]
    480c:	f90013f5 	str	x21, [sp, #32]
    4810:	a9034ff4 	stp	x20, x19, [sp, #48]
    4814:	910043fd 	add	x29, sp, #0x10
    4818:	8b050088 	add	x8, x4, x5
    481c:	cb0403ea 	neg	x10, x4
    4820:	aa0003f3 	mov	x19, x0
    4824:	d1000508 	sub	x8, x8, #0x1
    4828:	aa1f03e9 	mov	x9, xzr
    482c:	8a0a010b 	and	x11, x8, x10
    4830:	5280010a 	mov	w10, #0x8                   	// #8
    4834:	9bc37d68 	umulh	x8, x11, x3
    4838:	eb0803ff 	cmp	xzr, x8
    483c:	52800028 	mov	w8, #0x1                   	// #1
    4840:	54000541 	b.ne	48e8 <_ZN5alloc7raw_vec20RawVecInner$LT$A$GT$11finish_grow17ha2c1495e3d55b490E+0xe4>  // b.any
    4844:	9b037d75 	mul	x21, x11, x3
    4848:	d2f0000b 	mov	x11, #0x8000000000000000    	// #-9223372036854775808
    484c:	aa0403f4 	mov	x20, x4
    4850:	cb04016b 	sub	x11, x11, x4
    4854:	eb0b02bf 	cmp	x21, x11
    4858:	54000488 	b.hi	48e8 <_ZN5alloc7raw_vec20RawVecInner$LT$A$GT$11finish_grow17ha2c1495e3d55b490E+0xe4>  // b.pmore
    485c:	b40000a1 	cbz	x1, 4870 <_ZN5alloc7raw_vec20RawVecInner$LT$A$GT$11finish_grow17ha2c1495e3d55b490E+0x6c>
    4860:	9b057c28 	mul	x8, x1, x5
    4864:	910023e9 	add	x9, sp, #0x8
    4868:	f9000fb4 	str	x20, [x29, #24]
    486c:	14000003 	b	4878 <_ZN5alloc7raw_vec20RawVecInner$LT$A$GT$11finish_grow17ha2c1495e3d55b490E+0x74>
    4870:	aa1f03e8 	mov	x8, xzr
    4874:	910063a9 	add	x9, x29, #0x18
    4878:	f9000128 	str	x8, [x9]
    487c:	f9400fa8 	ldr	x8, [x29, #24]
    4880:	b4000128 	cbz	x8, 48a4 <_ZN5alloc7raw_vec20RawVecInner$LT$A$GT$11finish_grow17ha2c1495e3d55b490E+0xa0>
    4884:	f94007e1 	ldr	x1, [sp, #8]
    4888:	b4000141 	cbz	x1, 48b0 <_ZN5alloc7raw_vec20RawVecInner$LT$A$GT$11finish_grow17ha2c1495e3d55b490E+0xac>
    488c:	aa0203e0 	mov	x0, x2
    4890:	aa1403e2 	mov	x2, x20
    4894:	aa1503e3 	mov	x3, x21
    4898:	940012e3 	bl	9424 <_RNvCsiGVaDesi5rv_7___rustc14___rust_realloc>
    489c:	b5000140 	cbnz	x0, 48c4 <_ZN5alloc7raw_vec20RawVecInner$LT$A$GT$11finish_grow17ha2c1495e3d55b490E+0xc0>
    48a0:	1400000e 	b	48d8 <_ZN5alloc7raw_vec20RawVecInner$LT$A$GT$11finish_grow17ha2c1495e3d55b490E+0xd4>
    48a4:	b5000095 	cbnz	x21, 48b4 <_ZN5alloc7raw_vec20RawVecInner$LT$A$GT$11finish_grow17ha2c1495e3d55b490E+0xb0>
    48a8:	aa1403e0 	mov	x0, x20
    48ac:	14000006 	b	48c4 <_ZN5alloc7raw_vec20RawVecInner$LT$A$GT$11finish_grow17ha2c1495e3d55b490E+0xc0>
    48b0:	b4000115 	cbz	x21, 48d0 <_ZN5alloc7raw_vec20RawVecInner$LT$A$GT$11finish_grow17ha2c1495e3d55b490E+0xcc>
    48b4:	aa1503e0 	mov	x0, x21
    48b8:	aa1403e1 	mov	x1, x20
    48bc:	940012c7 	bl	93d8 <_RNvCsiGVaDesi5rv_7___rustc12___rust_alloc>
    48c0:	b40000c0 	cbz	x0, 48d8 <_ZN5alloc7raw_vec20RawVecInner$LT$A$GT$11finish_grow17ha2c1495e3d55b490E+0xd4>
    48c4:	aa1f03e8 	mov	x8, xzr
    48c8:	f9000660 	str	x0, [x19, #8]
    48cc:	14000005 	b	48e0 <_ZN5alloc7raw_vec20RawVecInner$LT$A$GT$11finish_grow17ha2c1495e3d55b490E+0xdc>
    48d0:	aa1403e0 	mov	x0, x20
    48d4:	b5ffff94 	cbnz	x20, 48c4 <_ZN5alloc7raw_vec20RawVecInner$LT$A$GT$11finish_grow17ha2c1495e3d55b490E+0xc0>
    48d8:	52800028 	mov	w8, #0x1                   	// #1
    48dc:	f9000674 	str	x20, [x19, #8]
    48e0:	5280020a 	mov	w10, #0x10                  	// #16
    48e4:	aa1503e9 	mov	x9, x21
    48e8:	f82a6a69 	str	x9, [x19, x10]
    48ec:	f9000268 	str	x8, [x19]
    48f0:	a9434ff4 	ldp	x20, x19, [sp, #48]
    48f4:	f94013f5 	ldr	x21, [sp, #32]
    48f8:	a9417bfd 	ldp	x29, x30, [sp, #16]
    48fc:	910103ff 	add	sp, sp, #0x40
    4900:	d65f03c0 	ret

0000000000004904 <_ZN3std3sys4sync6rwlock5futex6RwLock14read_contended17he64370b57fbdff87E>:
    4904:	d10243ff 	sub	sp, sp, #0x90
    4908:	a9037bfd 	stp	x29, x30, [sp, #48]
    490c:	a9046ffc 	stp	x28, x27, [sp, #64]
    4910:	a90567fa 	stp	x26, x25, [sp, #80]
    4914:	a9065ff8 	stp	x24, x23, [sp, #96]
    4918:	a90757f6 	stp	x22, x21, [sp, #112]
    491c:	a9084ff4 	stp	x20, x19, [sp, #128]
    4920:	9100c3fd 	add	x29, sp, #0x30
    4924:	b9400014 	ldr	w20, [x0]
    4928:	12b80016 	mov	w22, #0x3fffffff            	// #1073741823
    492c:	aa0003f3 	mov	x19, x0
    4930:	6b16029f 	cmp	w20, w22
    4934:	54000121 	b.ne	4958 <_ZN3std3sys4sync6rwlock5futex6RwLock14read_contended17he64370b57fbdff87E+0x54>  // b.any
    4938:	12800c49 	mov	w9, #0xffffff9d            	// #-99
    493c:	d5033fdf 	isb
    4940:	b9400274 	ldr	w20, [x19]
    4944:	6b16029f 	cmp	w20, w22
    4948:	54000081 	b.ne	4958 <_ZN3std3sys4sync6rwlock5futex6RwLock14read_contended17he64370b57fbdff87E+0x54>  // b.any
    494c:	2a0903e8 	mov	w8, w9
    4950:	11000529 	add	w9, w9, #0x1
    4954:	35ffff48 	cbnz	w8, 493c <_ZN3std3sys4sync6rwlock5futex6RwLock14read_contended17he64370b57fbdff87E+0x38>
    4958:	910003e8 	mov	x8, sp
    495c:	52800057 	mov	w23, #0x2                   	// #2
    4960:	529fffba 	mov	w26, #0xfffd                	// #65533
    4964:	2a1f03fc 	mov	w28, wzr
    4968:	72b80017 	movk	w23, #0xc000, lsl #16
    496c:	91002118 	add	x24, x8, #0x8
    4970:	32020ff9 	mov	w25, #0xc0000003            	// #-1073741821
    4974:	72a7fffa 	movk	w26, #0x3fff, lsl #16
    4978:	321f73fb 	mov	w27, #0x3ffffffe            	// #1073741822
    497c:	14000008 	b	499c <_ZN3std3sys4sync6rwlock5futex6RwLock14read_contended17he64370b57fbdff87E+0x98>
    4980:	11000681 	add	w1, w20, #0x1
    4984:	2a1403e0 	mov	w0, w20
    4988:	aa1303e2 	mov	x2, x19
    498c:	9400dda9 	bl	3c030 <__aarch64_cas4_acq>
    4990:	6b14001f 	cmp	w0, w20
    4994:	54000700 	b.eq	4a74 <_ZN3std3sys4sync6rwlock5futex6RwLock14read_contended17he64370b57fbdff87E+0x170>  // b.none
    4998:	2a0003f4 	mov	w20, w0
    499c:	12007688 	and	w8, w20, #0x3fffffff
    49a0:	360000bc 	tbz	w28, #0, 49b4 <_ZN3std3sys4sync6rwlock5futex6RwLock14read_contended17he64370b57fbdff87E+0xb0>
    49a4:	37f00094 	tbnz	w20, #30, 49b4 <_ZN3std3sys4sync6rwlock5futex6RwLock14read_contended17he64370b57fbdff87E+0xb0>
    49a8:	0b170109 	add	w9, w8, w23
    49ac:	6b19013f 	cmp	w9, w25
    49b0:	54fffe82 	b.cs	4980 <_ZN3std3sys4sync6rwlock5futex6RwLock14read_contended17he64370b57fbdff87E+0x7c>  // b.hs, b.nlast
    49b4:	6b1a011f 	cmp	w8, w26
    49b8:	54000068 	b.hi	49c4 <_ZN3std3sys4sync6rwlock5futex6RwLock14read_contended17he64370b57fbdff87E+0xc0>  // b.pmore
    49bc:	37f00054 	tbnz	w20, #30, 49c4 <_ZN3std3sys4sync6rwlock5futex6RwLock14read_contended17he64370b57fbdff87E+0xc0>
    49c0:	36fffe14 	tbz	w20, #31, 4980 <_ZN3std3sys4sync6rwlock5futex6RwLock14read_contended17he64370b57fbdff87E+0x7c>
    49c4:	6b1b011f 	cmp	w8, w27
    49c8:	54000660 	b.eq	4a94 <_ZN3std3sys4sync6rwlock5futex6RwLock14read_contended17he64370b57fbdff87E+0x190>  // b.none
    49cc:	37f00134 	tbnz	w20, #30, 49f0 <_ZN3std3sys4sync6rwlock5futex6RwLock14read_contended17he64370b57fbdff87E+0xec>
    49d0:	32020295 	orr	w21, w20, #0x40000000
    49d4:	2a1403e0 	mov	w0, w20
    49d8:	aa1303e2 	mov	x2, x19
    49dc:	2a1503e1 	mov	w1, w21
    49e0:	9400dd88 	bl	3c000 <__aarch64_cas4_relax>
    49e4:	6b14001f 	cmp	w0, w20
    49e8:	54fffd81 	b.ne	4998 <_ZN3std3sys4sync6rwlock5futex6RwLock14read_contended17he64370b57fbdff87E+0x94>  // b.any
    49ec:	2a1503f4 	mov	w20, w21
    49f0:	f90003ff 	str	xzr, [sp]
    49f4:	b9400268 	ldr	w8, [x19]
    49f8:	6b14011f 	cmp	w8, w20
    49fc:	54000201 	b.ne	4a3c <_ZN3std3sys4sync6rwlock5futex6RwLock14read_contended17he64370b57fbdff87E+0x138>  // b.any
    4a00:	b94003e8 	ldr	w8, [sp]
    4a04:	52800c40 	mov	w0, #0x62                  	// #98
    4a08:	aa1303e1 	mov	x1, x19
    4a0c:	52801122 	mov	w2, #0x89                  	// #137
    4a10:	2a1403e3 	mov	w3, w20
    4a14:	aa1f03e5 	mov	x5, xzr
    4a18:	7100011f 	cmp	w8, #0x0
    4a1c:	12800006 	mov	w6, #0xffffffff            	// #-1
    4a20:	9a9f1304 	csel	x4, x24, xzr, ne  // ne = any
    4a24:	97fffd8b 	bl	4050 <syscall@plt>
    4a28:	b6f800a0 	tbz	x0, #63, 4a3c <_ZN3std3sys4sync6rwlock5futex6RwLock14read_contended17he64370b57fbdff87E+0x138>
    4a2c:	97fffd75 	bl	4000 <__errno_location@plt>
    4a30:	b9400008 	ldr	w8, [x0]
    4a34:	7100111f 	cmp	w8, #0x4
    4a38:	54fffde0 	b.eq	49f4 <_ZN3std3sys4sync6rwlock5futex6RwLock14read_contended17he64370b57fbdff87E+0xf0>  // b.none
    4a3c:	b9400274 	ldr	w20, [x19]
    4a40:	5280003c 	mov	w28, #0x1                   	// #1
    4a44:	6b16029f 	cmp	w20, w22
    4a48:	54fffaa1 	b.ne	499c <_ZN3std3sys4sync6rwlock5futex6RwLock14read_contended17he64370b57fbdff87E+0x98>  // b.any
    4a4c:	12800c49 	mov	w9, #0xffffff9d            	// #-99
    4a50:	2a0903e8 	mov	w8, w9
    4a54:	d5033fdf 	isb
    4a58:	b9400274 	ldr	w20, [x19]
    4a5c:	11000529 	add	w9, w9, #0x1
    4a60:	5280003c 	mov	w28, #0x1                   	// #1
    4a64:	6b16029f 	cmp	w20, w22
    4a68:	54fff9a1 	b.ne	499c <_ZN3std3sys4sync6rwlock5futex6RwLock14read_contended17he64370b57fbdff87E+0x98>  // b.any
    4a6c:	35ffff28 	cbnz	w8, 4a50 <_ZN3std3sys4sync6rwlock5futex6RwLock14read_contended17he64370b57fbdff87E+0x14c>
    4a70:	17ffffcb 	b	499c <_ZN3std3sys4sync6rwlock5futex6RwLock14read_contended17he64370b57fbdff87E+0x98>
    4a74:	a9484ff4 	ldp	x20, x19, [sp, #128]
    4a78:	a94757f6 	ldp	x22, x21, [sp, #112]
    4a7c:	a9465ff8 	ldp	x24, x23, [sp, #96]
    4a80:	a94567fa 	ldp	x26, x25, [sp, #80]
    4a84:	a9446ffc 	ldp	x28, x27, [sp, #64]
    4a88:	a9437bfd 	ldp	x29, x30, [sp, #48]
    4a8c:	910243ff 	add	sp, sp, #0x90
    4a90:	d65f03c0 	ret
    4a94:	900002c8 	adrp	x8, 5c000 <__do_global_dtors_aux_fini_array_entry+0x14e8>
    4a98:	91002108 	add	x8, x8, #0x8
    4a9c:	52800029 	mov	w9, #0x1                   	// #1
    4aa0:	a90027e8 	stp	x8, x9, [sp]
    4aa4:	52800108 	mov	w8, #0x8                   	// #8
    4aa8:	900002c1 	adrp	x1, 5c000 <__do_global_dtors_aux_fini_array_entry+0x14e8>
    4aac:	91006021 	add	x1, x1, #0x18
    4ab0:	910003e0 	mov	x0, sp
    4ab4:	a901ffff 	stp	xzr, xzr, [sp, #24]
    4ab8:	f9000be8 	str	x8, [sp, #16]
    4abc:	97fffe2d 	bl	4370 <_ZN4core9panicking9panic_fmt17ha1b8843c59fc39d4E>

0000000000004ac0 <_ZN3std7process5abort17ha60f5331ba5ea9ecE>:
    4ac0:	a9bf7bfd 	stp	x29, x30, [sp, #-16]!
    4ac4:	910003fd 	mov	x29, sp
    4ac8:	94000e00 	bl	82c8 <_ZN3std3sys3pal4unix14abort_internal17he2ed3140c753f125E>

0000000000004acc <_RNvCsiGVaDesi5rv_7___rustc10rust_panic>:
    4acc:	d101c3ff 	sub	sp, sp, #0x70
    4ad0:	a9067bfd 	stp	x29, x30, [sp, #96]
    4ad4:	910183fd 	add	x29, sp, #0x60
    4ad8:	940039b3 	bl	131a4 <_RNvCsiGVaDesi5rv_7___rustc18___rust_start_panic>
    4adc:	910033e8 	add	x8, sp, #0xc
    4ae0:	d0000049 	adrp	x9, e000 <_ZN4core3fmt5float32float_to_decimal_common_shortest17ha2dadd441e81ebeaE+0x8cc>
    4ae4:	9137b129 	add	x9, x9, #0xdec
    4ae8:	a93ea7a8 	stp	x8, x9, [x29, #-24]
    4aec:	f00002a8 	adrp	x8, 5b000 <__do_global_dtors_aux_fini_array_entry+0x4e8>
    4af0:	912ac108 	add	x8, x8, #0xab0
    4af4:	52800049 	mov	w9, #0x2                   	// #2
    4af8:	b9000fe0 	str	w0, [sp, #12]
    4afc:	d10007a0 	sub	x0, x29, #0x1
    4b00:	a901a7e8 	stp	x8, x9, [sp, #24]
    4b04:	d10063a8 	sub	x8, x29, #0x18
    4b08:	52800029 	mov	w9, #0x1                   	// #1
    4b0c:	910063e1 	add	x1, sp, #0x18
    4b10:	f90017e8 	str	x8, [sp, #40]
    4b14:	a9037fe9 	stp	x9, xzr, [sp, #48]
    4b18:	9400544b 	bl	19c44 <_ZN3std2io5Write9write_fmt17h9ce43ea323a941f1E>
    4b1c:	f9000be0 	str	x0, [sp, #16]
    4b20:	910043e0 	add	x0, sp, #0x10
    4b24:	94005499 	bl	19d88 <_ZN4core3ptr81drop_in_place$LT$core..result..Result$LT$$LP$$RP$$C$std..io..error..Error$GT$$GT$17h9cd4d1d0faffe380E>
    4b28:	97ffffe6 	bl	4ac0 <_ZN3std7process5abort17ha60f5331ba5ea9ecE>

0000000000004b2c <_ZN3std9panicking11panic_count17is_zero_slow_path17h7c68d338a911255aE>:
    4b2c:	d53bd048 	mrs	x8, tpidr_el0
    4b30:	91400108 	add	x8, x8, #0x0, lsl #12
    4b34:	91006108 	add	x8, x8, #0x18
    4b38:	f9400108 	ldr	x8, [x8]
    4b3c:	f100011f 	cmp	x8, #0x0
    4b40:	1a9f17e0 	cset	w0, eq  // eq = none
    4b44:	d65f03c0 	ret

0000000000004b48 <_ZN4core3ptr66drop_in_place$LT$std..backtrace_rs..backtrace..libunwind..Bomb$GT$17h96132d164e6c0e16E>:
    4b48:	d10103ff 	sub	sp, sp, #0x40
    4b4c:	a9037bfd 	stp	x29, x30, [sp, #48]
    4b50:	9100c3fd 	add	x29, sp, #0x30
    4b54:	900002c8 	adrp	x8, 5c000 <__do_global_dtors_aux_fini_array_entry+0x14e8>
    4b58:	9126e108 	add	x8, x8, #0x9b8
    4b5c:	52800029 	mov	w9, #0x1                   	// #1
    4b60:	a90027e8 	stp	x8, x9, [sp]
    4b64:	52800108 	mov	w8, #0x8                   	// #8
    4b68:	900002c1 	adrp	x1, 5c000 <__do_global_dtors_aux_fini_array_entry+0x14e8>
    4b6c:	91272021 	add	x1, x1, #0x9c8
    4b70:	910003e0 	mov	x0, sp
    4b74:	a901ffff 	stp	xzr, xzr, [sp, #24]
    4b78:	f9000be8 	str	x8, [sp, #16]
    4b7c:	97fffdfd 	bl	4370 <_ZN4core9panicking9panic_fmt17ha1b8843c59fc39d4E>

0000000000004b80 <_ZN5alloc7raw_vec19RawVec$LT$T$C$A$GT$8grow_one17h118103f54922d7ffE>:
    4b80:	d10103ff 	sub	sp, sp, #0x40
    4b84:	a9027bfd 	stp	x29, x30, [sp, #32]
    4b88:	a9034ff4 	stp	x20, x19, [sp, #48]
    4b8c:	910083fd 	add	x29, sp, #0x20
    4b90:	a9400801 	ldp	x1, x2, [x0]
    4b94:	52800088 	mov	w8, #0x4                   	// #4
    4b98:	aa0003f3 	mov	x19, x0
    4b9c:	910023e0 	add	x0, sp, #0x8
    4ba0:	52800104 	mov	w4, #0x8                   	// #8
    4ba4:	52800b05 	mov	w5, #0x58                  	// #88
    4ba8:	d37ff829 	lsl	x9, x1, #1
    4bac:	f100113f 	cmp	x9, #0x4
    4bb0:	9a888134 	csel	x20, x9, x8, hi  // hi = pmore
    4bb4:	aa1403e3 	mov	x3, x20
    4bb8:	940006bc 	bl	66a8 <_ZN5alloc7raw_vec20RawVecInner$LT$A$GT$11finish_grow17ha0ca981926be2dffE>
    4bbc:	b9400be8 	ldr	w8, [sp, #8]
    4bc0:	7100051f 	cmp	w8, #0x1
    4bc4:	540000e0 	b.eq	4be0 <_ZN5alloc7raw_vec19RawVec$LT$T$C$A$GT$8grow_one17h118103f54922d7ffE+0x60>  // b.none
    4bc8:	f9400be8 	ldr	x8, [sp, #16]
    4bcc:	a9002274 	stp	x20, x8, [x19]
    4bd0:	a9434ff4 	ldp	x20, x19, [sp, #48]
    4bd4:	a9427bfd 	ldp	x29, x30, [sp, #32]
    4bd8:	910103ff 	add	sp, sp, #0x40
    4bdc:	d65f03c0 	ret
    4be0:	a94107e0 	ldp	x0, x1, [sp, #16]
    4be4:	97fffd32 	bl	40ac <_ZN5alloc7raw_vec12handle_error17hbfb8377505525b80E>

0000000000004be8 <_ZN3std3sys3pal6common14small_c_string24run_with_cstr_allocating17he6852b514412aa9dE>:
    4be8:	d10143ff 	sub	sp, sp, #0x50
    4bec:	a9027bfd 	stp	x29, x30, [sp, #32]
    4bf0:	f9001bf5 	str	x21, [sp, #48]
    4bf4:	a9044ff4 	stp	x20, x19, [sp, #64]
    4bf8:	910083fd 	add	x29, sp, #0x20
    4bfc:	aa0003f4 	mov	x20, x0
    4c00:	910003e0 	mov	x0, sp
    4c04:	94001342 	bl	990c <_ZN81_$LT$$RF$$u5b$u8$u5d$$u20$as$u20$alloc..ffi..c_str..CString..new..SpecNewImpl$GT$13spec_new_impl17h23bd15eedb533220E>
    4c08:	f94003e8 	ldr	x8, [sp]
    4c0c:	d2f00009 	mov	x9, #0x8000000000000000    	// #-9223372036854775808
    4c10:	eb09011f 	cmp	x8, x9
    4c14:	54000101 	b.ne	4c34 <_ZN3std3sys3pal6common14small_c_string24run_with_cstr_allocating17he6852b514412aa9dE+0x4c>  // b.any
    4c18:	a940d7f3 	ldp	x19, x21, [sp, #8]
    4c1c:	aa1403e0 	mov	x0, x20
    4c20:	aa1303e1 	mov	x1, x19
    4c24:	94006d3b 	bl	20110 <_ZN3std3sys2fs4unix12canonicalize17h0dc20e006136a7a2E>
    4c28:	3900027f 	strb	wzr, [x19]
    4c2c:	b50000f5 	cbnz	x21, 4c48 <_ZN3std3sys3pal6common14small_c_string24run_with_cstr_allocating17he6852b514412aa9dE+0x60>
    4c30:	1400000d 	b	4c64 <_ZN3std3sys3pal6common14small_c_string24run_with_cstr_allocating17he6852b514412aa9dE+0x7c>
    4c34:	f00002aa 	adrp	x10, 5b000 <__do_global_dtors_aux_fini_array_entry+0x4e8>
    4c38:	913f814a 	add	x10, x10, #0xfe0
    4c3c:	a9002a89 	stp	x9, x10, [x20]
    4c40:	b4000128 	cbz	x8, 4c64 <_ZN3std3sys3pal6common14small_c_string24run_with_cstr_allocating17he6852b514412aa9dE+0x7c>
    4c44:	f94007f3 	ldr	x19, [sp, #8]
    4c48:	aa1303e0 	mov	x0, x19
    4c4c:	52800021 	mov	w1, #0x1                   	// #1
    4c50:	a9444ff4 	ldp	x20, x19, [sp, #64]
    4c54:	f9401bf5 	ldr	x21, [sp, #48]
    4c58:	a9427bfd 	ldp	x29, x30, [sp, #32]
    4c5c:	910143ff 	add	sp, sp, #0x50
    4c60:	140011f0 	b	9420 <_RNvCsiGVaDesi5rv_7___rustc14___rust_dealloc>
    4c64:	a9444ff4 	ldp	x20, x19, [sp, #64]
    4c68:	f9401bf5 	ldr	x21, [sp, #48]
    4c6c:	a9427bfd 	ldp	x29, x30, [sp, #32]
    4c70:	910143ff 	add	sp, sp, #0x50
    4c74:	d65f03c0 	ret
    4c78:	aa0003f4 	mov	x20, x0
    4c7c:	3900027f 	strb	wzr, [x19]
    4c80:	b4000095 	cbz	x21, 4c90 <_ZN3std3sys3pal6common14small_c_string24run_with_cstr_allocating17he6852b514412aa9dE+0xa8>
    4c84:	aa1303e0 	mov	x0, x19
    4c88:	52800021 	mov	w1, #0x1                   	// #1
    4c8c:	940011e5 	bl	9420 <_RNvCsiGVaDesi5rv_7___rustc14___rust_dealloc>
    4c90:	aa1403e0 	mov	x0, x20
    4c94:	97fffce7 	bl	4030 <_Unwind_Resume@plt>

0000000000004c98 <_ZN5alloc7raw_vec20RawVecInner$LT$A$GT$7reserve21do_reserve_and_handle17hf30069cb7075bcd0E>:
    4c98:	d10103ff 	sub	sp, sp, #0x40
    4c9c:	a9027bfd 	stp	x29, x30, [sp, #32]
    4ca0:	a9034ff4 	stp	x20, x19, [sp, #48]
    4ca4:	910083fd 	add	x29, sp, #0x20
    4ca8:	ab010048 	adds	x8, x2, x1
    4cac:	54000342 	b.cs	4d14 <_ZN5alloc7raw_vec20RawVecInner$LT$A$GT$7reserve21do_reserve_and_handle17hf30069cb7075bcd0E+0x7c>  // b.hs, b.nlast
    4cb0:	a9400801 	ldp	x1, x2, [x0]
    4cb4:	aa0403e5 	mov	x5, x4
    4cb8:	5280010a 	mov	w10, #0x8                   	// #8
    4cbc:	aa0303e4 	mov	x4, x3
    4cc0:	aa0003f3 	mov	x19, x0
    4cc4:	910023e0 	add	x0, sp, #0x8
    4cc8:	d37ff829 	lsl	x9, x1, #1
    4ccc:	eb09011f 	cmp	x8, x9
    4cd0:	9a898108 	csel	x8, x8, x9, hi  // hi = pmore
    4cd4:	f10004bf 	cmp	x5, #0x1
    4cd8:	52800089 	mov	w9, #0x4                   	// #4
    4cdc:	9a890149 	csel	x9, x10, x9, eq  // eq = none
    4ce0:	eb09011f 	cmp	x8, x9
    4ce4:	9a898114 	csel	x20, x8, x9, hi  // hi = pmore
    4ce8:	aa1403e3 	mov	x3, x20
    4cec:	9400066f 	bl	66a8 <_ZN5alloc7raw_vec20RawVecInner$LT$A$GT$11finish_grow17ha0ca981926be2dffE>
    4cf0:	b9400be8 	ldr	w8, [sp, #8]
    4cf4:	7100051f 	cmp	w8, #0x1
    4cf8:	54000120 	b.eq	4d1c <_ZN5alloc7raw_vec20RawVecInner$LT$A$GT$7reserve21do_reserve_and_handle17hf30069cb7075bcd0E+0x84>  // b.none
    4cfc:	f9400be8 	ldr	x8, [sp, #16]
    4d00:	a9002274 	stp	x20, x8, [x19]
    4d04:	a9434ff4 	ldp	x20, x19, [sp, #48]
    4d08:	a9427bfd 	ldp	x29, x30, [sp, #32]
    4d0c:	910103ff 	add	sp, sp, #0x40
    4d10:	d65f03c0 	ret
    4d14:	aa1f03e0 	mov	x0, xzr
    4d18:	97fffce5 	bl	40ac <_ZN5alloc7raw_vec12handle_error17hbfb8377505525b80E>
    4d1c:	a94107e0 	ldp	x0, x1, [sp, #16]
    4d20:	97fffce3 	bl	40ac <_ZN5alloc7raw_vec12handle_error17hbfb8377505525b80E>

0000000000004d24 <_ZN5alloc7raw_vec19RawVec$LT$T$C$A$GT$8grow_one17head6f4d2c627c524E>:
    4d24:	d10103ff 	sub	sp, sp, #0x40
    4d28:	a9027bfd 	stp	x29, x30, [sp, #32]
    4d2c:	a9034ff4 	stp	x20, x19, [sp, #48]
    4d30:	910083fd 	add	x29, sp, #0x20
    4d34:	a9400801 	ldp	x1, x2, [x0]
    4d38:	52800088 	mov	w8, #0x4                   	// #4
    4d3c:	aa0003f3 	mov	x19, x0
    4d40:	910023e0 	add	x0, sp, #0x8
    4d44:	52800104 	mov	w4, #0x8                   	// #8
    4d48:	52800205 	mov	w5, #0x10                  	// #16
    4d4c:	d37ff829 	lsl	x9, x1, #1
    4d50:	f100113f 	cmp	x9, #0x4
    4d54:	9a888134 	csel	x20, x9, x8, hi  // hi = pmore
    4d58:	aa1403e3 	mov	x3, x20
    4d5c:	94000653 	bl	66a8 <_ZN5alloc7raw_vec20RawVecInner$LT$A$GT$11finish_grow17ha0ca981926be2dffE>
    4d60:	b9400be8 	ldr	w8, [sp, #8]
    4d64:	7100051f 	cmp	w8, #0x1
    4d68:	540000e0 	b.eq	4d84 <_ZN5alloc7raw_vec19RawVec$LT$T$C$A$GT$8grow_one17head6f4d2c627c524E+0x60>  // b.none
    4d6c:	f9400be8 	ldr	x8, [sp, #16]
    4d70:	a9002274 	stp	x20, x8, [x19]
    4d74:	a9434ff4 	ldp	x20, x19, [sp, #48]
    4d78:	a9427bfd 	ldp	x29, x30, [sp, #32]
    4d7c:	910103ff 	add	sp, sp, #0x40
    4d80:	d65f03c0 	ret
    4d84:	a94107e0 	ldp	x0, x1, [sp, #16]
    4d88:	97fffcc9 	bl	40ac <_ZN5alloc7raw_vec12handle_error17hbfb8377505525b80E>

0000000000004d8c <_ZN4core4cell4once17OnceCell$LT$T$GT$8try_init17h6577ec651d954e20E>:
    4d8c:	a9ba7bfd 	stp	x29, x30, [sp, #-96]!
    4d90:	a9016ffc 	stp	x28, x27, [sp, #16]
    4d94:	a90267fa 	stp	x26, x25, [sp, #32]
    4d98:	a9035ff8 	stp	x24, x23, [sp, #48]
    4d9c:	a90457f6 	stp	x22, x21, [sp, #64]
    4da0:	a9054ff4 	stp	x20, x19, [sp, #80]
    4da4:	910003fd 	mov	x29, sp
    4da8:	d109c3ff 	sub	sp, sp, #0x270
    4dac:	f9403474 	ldr	x20, [x3, #104]
    4db0:	d37efe88 	lsr	x8, x20, #62
    4db4:	b50003c8 	cbnz	x8, 4e2c <_ZN4core4cell4once17OnceCell$LT$T$GT$8try_init17h6577ec651d954e20E+0xa0>
    4db8:	d37ef698 	lsl	x24, x20, #2
    4dbc:	92f00008 	mov	x8, #0x7fffffffffffffff    	// #9223372036854775807
    4dc0:	eb08031f 	cmp	x24, x8
    4dc4:	54000342 	b.cs	4e2c <_ZN4core4cell4once17OnceCell$LT$T$GT$8try_init17h6577ec651d954e20E+0xa0>  // b.hs, b.nlast
    4dc8:	a94dac6a 	ldp	x10, x11, [x3, #216]
    4dcc:	aa0303f7 	mov	x23, x3
    4dd0:	a94bb86d 	ldp	x13, x14, [x3, #184]
    4dd4:	aa0103fa 	mov	x26, x1
    4dd8:	b9410069 	ldr	w9, [x3, #256]
    4ddc:	f940746c 	ldr	x12, [x3, #232]
    4de0:	aa0203fc 	mov	x28, x2
    4de4:	39442468 	ldrb	w8, [x3, #265]
    4de8:	f9403079 	ldr	x25, [x3, #96]
    4dec:	aa0003fb 	mov	x27, x0
    4df0:	b9007be9 	str	w9, [sp, #120]
    4df4:	b90083e8 	str	w8, [sp, #128]
    4df8:	a906abeb 	stp	x11, x10, [sp, #104]
    4dfc:	a905b3ed 	stp	x13, x12, [sp, #88]
    4e00:	f9002bee 	str	x14, [sp, #80]
    4e04:	b4000178 	cbz	x24, 4e30 <_ZN4core4cell4once17OnceCell$LT$T$GT$8try_init17h6577ec651d954e20E+0xa4>
    4e08:	aa1803e0 	mov	x0, x24
    4e0c:	52800041 	mov	w1, #0x2                   	// #2
    4e10:	94001172 	bl	93d8 <_RNvCsiGVaDesi5rv_7___rustc12___rust_alloc>
    4e14:	aa0003f6 	mov	x22, x0
    4e18:	aa1403f5 	mov	x21, x20
    4e1c:	b50000e0 	cbnz	x0, 4e38 <_ZN4core4cell4once17OnceCell$LT$T$GT$8try_init17h6577ec651d954e20E+0xac>
    4e20:	52800040 	mov	w0, #0x2                   	// #2
    4e24:	aa1803e1 	mov	x1, x24
    4e28:	97fffca1 	bl	40ac <_ZN5alloc7raw_vec12handle_error17hbfb8377505525b80E>
    4e2c:	97fffcab 	bl	40d8 <_ZN5alloc7raw_vec17capacity_overflow17h23eb73f0eae3a49dE>
    4e30:	aa1f03f5 	mov	x21, xzr
    4e34:	52800056 	mov	w22, #0x2                   	// #2
    4e38:	aa1603e0 	mov	x0, x22
    4e3c:	aa1903e1 	mov	x1, x25
    4e40:	aa1803e2 	mov	x2, x24
    4e44:	97fffb8b 	bl	3c70 <memcpy@plt>
    4e48:	f94042f3 	ldr	x19, [x23, #128]
    4e4c:	b200f3e9 	mov	x9, #0x5555555555555555    	// #6148914691236517205
    4e50:	f28aaac9 	movk	x9, #0x5556
    4e54:	8b130668 	add	x8, x19, x19, lsl #1
    4e58:	f2e0aaa9 	movk	x9, #0x555, lsl #48
    4e5c:	d1000529 	sub	x9, x9, #0x1
    4e60:	d37df119 	lsl	x25, x8, #3
    4e64:	eb09027f 	cmp	x19, x9
    4e68:	540000c9 	b.ls	4e80 <_ZN4core4cell4once17OnceCell$LT$T$GT$8try_init17h6577ec651d954e20E+0xf4>  // b.plast
    4e6c:	aa1f03fb 	mov	x27, xzr
    4e70:	aa1b03e0 	mov	x0, x27
    4e74:	aa1903e1 	mov	x1, x25
    4e78:	97fffc8d 	bl	40ac <_ZN5alloc7raw_vec12handle_error17hbfb8377505525b80E>
    4e7c:	140005a4 	b	650c <_ZN4core4cell4once17OnceCell$LT$T$GT$8try_init17h6577ec651d954e20E+0x1780>
    4e80:	a903effa 	stp	x26, x27, [sp, #56]
    4e84:	f9403efa 	ldr	x26, [x23, #120]
    4e88:	f9001bfc 	str	x28, [sp, #48]
    4e8c:	b4000139 	cbz	x25, 4eb0 <_ZN4core4cell4once17OnceCell$LT$T$GT$8try_init17h6577ec651d954e20E+0x124>
    4e90:	aa1903e0 	mov	x0, x25
    4e94:	52800101 	mov	w1, #0x8                   	// #8
    4e98:	5280011b 	mov	w27, #0x8                   	// #8
    4e9c:	9400114f 	bl	93d8 <_RNvCsiGVaDesi5rv_7___rustc12___rust_alloc>
    4ea0:	aa0003f8 	mov	x24, x0
    4ea4:	f90027f3 	str	x19, [sp, #72]
    4ea8:	b5000080 	cbnz	x0, 4eb8 <_ZN4core4cell4once17OnceCell$LT$T$GT$8try_init17h6577ec651d954e20E+0x12c>
    4eac:	17fffff1 	b	4e70 <_ZN4core4cell4once17OnceCell$LT$T$GT$8try_init17h6577ec651d954e20E+0xe4>
    4eb0:	52800118 	mov	w24, #0x8                   	// #8
    4eb4:	f90027ff 	str	xzr, [sp, #72]
    4eb8:	aa1803e0 	mov	x0, x24
    4ebc:	aa1a03e1 	mov	x1, x26
    4ec0:	aa1903e2 	mov	x2, x25
    4ec4:	97fffb6b 	bl	3c70 <memcpy@plt>
    4ec8:	f9404ef9 	ldr	x25, [x23, #152]
    4ecc:	aa1f03fc 	mov	x28, xzr
    4ed0:	d37eff28 	lsr	x8, x25, #62
    4ed4:	d37ef73a 	lsl	x26, x25, #2
    4ed8:	b5000188 	cbnz	x8, 4f08 <_ZN4core4cell4once17OnceCell$LT$T$GT$8try_init17h6577ec651d954e20E+0x17c>
    4edc:	b27ff7e8 	mov	x8, #0x7ffffffffffffffe    	// #9223372036854775806
    4ee0:	eb08035f 	cmp	x26, x8
    4ee4:	54000128 	b.hi	4f08 <_ZN4core4cell4once17OnceCell$LT$T$GT$8try_init17h6577ec651d954e20E+0x17c>  // b.pmore
    4ee8:	f9404afb 	ldr	x27, [x23, #144]
    4eec:	b400017a 	cbz	x26, 4f18 <_ZN4core4cell4once17OnceCell$LT$T$GT$8try_init17h6577ec651d954e20E+0x18c>
    4ef0:	aa1a03e0 	mov	x0, x26
    4ef4:	52800041 	mov	w1, #0x2                   	// #2
    4ef8:	5280005c 	mov	w28, #0x2                   	// #2
    4efc:	94001137 	bl	93d8 <_RNvCsiGVaDesi5rv_7___rustc12___rust_alloc>
    4f00:	f90017f9 	str	x25, [sp, #40]
    4f04:	b50000e0 	cbnz	x0, 4f20 <_ZN4core4cell4once17OnceCell$LT$T$GT$8try_init17h6577ec651d954e20E+0x194>
    4f08:	aa1c03e0 	mov	x0, x28
    4f0c:	aa1a03e1 	mov	x1, x26
    4f10:	97fffc67 	bl	40ac <_ZN5alloc7raw_vec12handle_error17hbfb8377505525b80E>
    4f14:	1400057e 	b	650c <_ZN4core4cell4once17OnceCell$LT$T$GT$8try_init17h6577ec651d954e20E+0x1780>
    4f18:	52800040 	mov	w0, #0x2                   	// #2
    4f1c:	f90017ff 	str	xzr, [sp, #40]
    4f20:	aa1b03e1 	mov	x1, x27
    4f24:	aa1a03e2 	mov	x2, x26
    4f28:	f90013e0 	str	x0, [sp, #32]
    4f2c:	97fffb51 	bl	3c70 <memcpy@plt>
    4f30:	f9405ae9 	ldr	x9, [x23, #176]
    4f34:	52800b08 	mov	w8, #0x58                  	// #88
    4f38:	9b087d3b 	mul	x27, x9, x8
    4f3c:	d28e8ba8 	mov	x8, #0x745d                	// #29789
    4f40:	f2a8ba28 	movk	x8, #0x45d1, lsl #16
    4f44:	f2cba2e8 	movk	x8, #0x5d17, lsl #32
    4f48:	f2e02e88 	movk	x8, #0x174, lsl #48
    4f4c:	eb08013f 	cmp	x9, x8
    4f50:	540000c9 	b.ls	4f68 <_ZN4core4cell4once17OnceCell$LT$T$GT$8try_init17h6577ec651d954e20E+0x1dc>  // b.plast
    4f54:	aa1f03fa 	mov	x26, xzr
    4f58:	aa1a03e0 	mov	x0, x26
    4f5c:	aa1b03e1 	mov	x1, x27
    4f60:	97fffc53 	bl	40ac <_ZN5alloc7raw_vec12handle_error17hbfb8377505525b80E>
    4f64:	1400056a 	b	650c <_ZN4core4cell4once17OnceCell$LT$T$GT$8try_init17h6577ec651d954e20E+0x1780>
    4f68:	f94056fc 	ldr	x28, [x23, #168]
    4f6c:	f9000fe9 	str	x9, [sp, #24]
    4f70:	b400013b 	cbz	x27, 4f94 <_ZN4core4cell4once17OnceCell$LT$T$GT$8try_init17h6577ec651d954e20E+0x208>
    4f74:	aa1b03e0 	mov	x0, x27
    4f78:	52800101 	mov	w1, #0x8                   	// #8
    4f7c:	5280011a 	mov	w26, #0x8                   	// #8
    4f80:	94001116 	bl	93d8 <_RNvCsiGVaDesi5rv_7___rustc12___rust_alloc>
    4f84:	f9400fe8 	ldr	x8, [sp, #24]
    4f88:	f9000be8 	str	x8, [sp, #16]
    4f8c:	b5000080 	cbnz	x0, 4f9c <_ZN4core4cell4once17OnceCell$LT$T$GT$8try_init17h6577ec651d954e20E+0x210>
    4f90:	17fffff2 	b	4f58 <_ZN4core4cell4once17OnceCell$LT$T$GT$8try_init17h6577ec651d954e20E+0x1cc>
    4f94:	52800100 	mov	w0, #0x8                   	// #8
    4f98:	f9000bff 	str	xzr, [sp, #16]
    4f9c:	910323e8 	add	x8, sp, #0xc8
    4fa0:	aa1c03e1 	mov	x1, x28
    4fa4:	aa1b03e2 	mov	x2, x27
    4fa8:	9104151a 	add	x26, x8, #0x105
    4fac:	f90007e0 	str	x0, [sp, #8]
    4fb0:	97fffb30 	bl	3c70 <memcpy@plt>
    4fb4:	f94002ec 	ldr	x12, [x23]
    4fb8:	a94ca2e9 	ldp	x9, x8, [x23, #200]
    4fbc:	a94f2aeb 	ldp	x11, x10, [x23, #240]
    4fc0:	f100b99f 	cmp	x12, #0x2e
    4fc4:	54000061 	b.ne	4fd0 <_ZN4core4cell4once17OnceCell$LT$T$GT$8try_init17h6577ec651d954e20E+0x244>  // b.any
    4fc8:	d100c3a6 	sub	x6, x29, #0x30
    4fcc:	14000034 	b	509c <_ZN4core4cell4once17OnceCell$LT$T$GT$8try_init17h6577ec651d954e20E+0x310>
    4fd0:	900001cd 	adrp	x13, 3c000 <__aarch64_cas4_relax>
    4fd4:	911c69ad 	add	x13, x13, #0x71a
    4fd8:	d100c3a6 	sub	x6, x29, #0x30
    4fdc:	1000008e 	adr	x14, 4fec <_ZN4core4cell4once17OnceCell$LT$T$GT$8try_init17h6577ec651d954e20E+0x260>
    4fe0:	786c79af 	ldrh	w15, [x13, x12, lsl #1]
    4fe4:	8b0f09ce 	add	x14, x14, x15, lsl #2
    4fe8:	d61f01c0 	br	x14
    4fec:	f94006ef 	ldr	x15, [x23, #8]
    4ff0:	d348fdee 	lsr	x14, x15, #8
    4ff4:	d350fdf0 	lsr	x16, x15, #16
    4ff8:	92607ded 	and	x13, x15, #0xffffffff00000000
    4ffc:	f9400ef2 	ldr	x18, [x23, #24]
    5000:	3dc00ee0 	ldr	q0, [x23, #48]
    5004:	f94022e0 	ldr	x0, [x23, #64]
    5008:	f100ba5f 	cmp	x18, #0x2e
    500c:	540003c0 	b.eq	5084 <_ZN4core4cell4once17OnceCell$LT$T$GT$8try_init17h6577ec651d954e20E+0x2f8>  // b.none
    5010:	1400000a 	b	5038 <_ZN4core4cell4once17OnceCell$LT$T$GT$8try_init17h6577ec651d954e20E+0x2ac>
    5014:	394022ef 	ldrb	w15, [x23, #8]
    5018:	2a1f03ee 	mov	w14, wzr
    501c:	2a1f03f0 	mov	w16, wzr
    5020:	aa1f03ed 	mov	x13, xzr
    5024:	f9400ef2 	ldr	x18, [x23, #24]
    5028:	3dc00ee0 	ldr	q0, [x23, #48]
    502c:	f94022e0 	ldr	x0, [x23, #64]
    5030:	f100ba5f 	cmp	x18, #0x2e
    5034:	54000280 	b.eq	5084 <_ZN4core4cell4once17OnceCell$LT$T$GT$8try_init17h6577ec651d954e20E+0x2f8>  // b.none
    5038:	f00001a1 	adrp	x1, 3c000 <__aarch64_cas4_relax>
    503c:	911dd821 	add	x1, x1, #0x776
    5040:	10000082 	adr	x2, 5050 <_ZN4core4cell4once17OnceCell$LT$T$GT$8try_init17h6577ec651d954e20E+0x2c4>
    5044:	78727823 	ldrh	w3, [x1, x18, lsl #1]
    5048:	8b030842 	add	x2, x2, x3, lsl #2
    504c:	d61f0040 	br	x2
    5050:	f94012e3 	ldr	x3, [x23, #32]
    5054:	d348fc62 	lsr	x2, x3, #8
    5058:	d350fc64 	lsr	x4, x3, #16
    505c:	92607c61 	and	x1, x3, #0xffffffff00000000
    5060:	14000005 	b	5074 <_ZN4core4cell4once17OnceCell$LT$T$GT$8try_init17h6577ec651d954e20E+0x2e8>
    5064:	394082e3 	ldrb	w3, [x23, #32]
    5068:	2a1f03e2 	mov	w2, wzr
    506c:	2a1f03e4 	mov	w4, wzr
    5070:	aa1f03e1 	mov	x1, xzr
    5074:	12001c63 	and	w3, w3, #0xff
    5078:	33181c43 	bfi	w3, w2, #8, #8
    507c:	2a044062 	orr	w2, w3, w4, lsl #16
    5080:	aa020021 	orr	x1, x1, x2
    5084:	12001def 	and	w15, w15, #0xff
    5088:	3cc482e1 	ldur	q1, [x23, #72]
    508c:	33181dcf 	bfi	w15, w14, #8, #8
    5090:	3d8000c1 	str	q1, [x6]
    5094:	2a1041ee 	orr	w14, w15, w16, lsl #16
    5098:	aa0e01ae 	orr	x14, x13, x14
    509c:	3dc000c1 	ldr	q1, [x6]
    50a0:	a90cbbec 	stp	x12, x14, [sp, #200]
    50a4:	910047ec 	add	x12, sp, #0x11
    50a8:	f900e3ea 	str	x10, [sp, #448]
    50ac:	5280011b 	mov	w27, #0x8                   	// #8
    50b0:	3c8ff181 	stur	q1, [x12, #255]
    50b4:	f94027ec 	ldr	x12, [sp, #72]
    50b8:	5280033c 	mov	w28, #0x19                  	// #25
    50bc:	3c8f83e0 	stur	q0, [sp, #248]
    50c0:	a91333f4 	stp	x20, x12, [sp, #304]
    50c4:	a9423bec 	ldp	x12, x14, [sp, #32]
    50c8:	f90087e0 	str	x0, [sp, #264]
    50cc:	f00001b4 	adrp	x20, 3c000 <__aarch64_cas4_relax>
    50d0:	911f4a94 	add	x20, x20, #0x7d2
    50d4:	a9125bf5 	stp	x21, x22, [sp, #288]
    50d8:	f00002b5 	adrp	x21, 5c000 <__do_global_dtors_aux_fini_array_entry+0x14e8>
    50dc:	912062b5 	add	x21, x21, #0x818
    50e0:	a91533ee 	stp	x14, x12, [sp, #336]
    50e4:	a940bbef 	ldp	x15, x14, [sp, #8]
    50e8:	f9400fec 	ldr	x12, [sp, #24]
    50ec:	a9144ff8 	stp	x24, x19, [sp, #320]
    50f0:	92800013 	mov	x19, #0xffffffffffffffff    	// #-1
    50f4:	f00002b8 	adrp	x24, 5c000 <__do_global_dtors_aux_fini_array_entry+0x14e8>
    50f8:	9120c318 	add	x24, x24, #0x830
    50fc:	f90003ff 	str	xzr, [sp]
    5100:	a9163bf9 	stp	x25, x14, [sp, #352]
    5104:	52800039 	mov	w25, #0x1                   	// #1
    5108:	a91733ef 	stp	x15, x12, [sp, #368]
    510c:	a9453bec 	ldp	x12, x14, [sp, #80]
    5110:	4e080f20 	dup	v0.2d, x25
    5114:	a909efff 	stp	xzr, x27, [sp, #152]
    5118:	a90affff 	stp	xzr, xzr, [sp, #168]
    511c:	a91833ee 	stp	x14, x12, [sp, #384]
    5120:	a946bbec 	ldp	x12, x14, [sp, #104]
    5124:	a90bfffb 	stp	x27, xzr, [sp, #184]
    5128:	a90dcbf1 	stp	x17, x18, [sp, #216]
    512c:	a91a33ee 	stp	x14, x12, [sp, #416]
    5130:	f94033ec 	ldr	x12, [sp, #96]
    5134:	a90e97e1 	stp	x1, x5, [sp, #232]
    5138:	a91b2fec 	stp	x12, x11, [sp, #432]
    513c:	910416ec 	add	x12, x23, #0x105
    5140:	394412eb 	ldrb	w11, [x23, #260]
    5144:	b940018a 	ldr	w10, [x12]
    5148:	b9407bec 	ldr	w12, [sp, #120]
    514c:	910323f7 	add	x23, sp, #0xc8
    5150:	a91923e9 	stp	x9, x8, [sp, #400]
    5154:	b900034a 	str	w10, [x26]
    5158:	b94083ea 	ldr	w10, [sp, #128]
    515c:	b901cbec 	str	w12, [sp, #456]
    5160:	390747ea 	strb	w10, [sp, #465]
    5164:	9103a7ea 	add	x10, sp, #0xe9
    5168:	3c8ff140 	stur	q0, [x10, #255]
    516c:	f00001aa 	adrp	x10, 3c000 <__aarch64_cas4_relax>
    5170:	3dc15540 	ldr	q0, [x10, #1360]
    5174:	390733eb 	strb	w11, [sp, #460]
    5178:	a91dffff 	stp	xzr, xzr, [sp, #472]
    517c:	f90107ff 	str	xzr, [sp, #520]
    5180:	a91fffff 	stp	xzr, xzr, [sp, #504]
    5184:	390843ff 	strb	wzr, [sp, #528]
    5188:	390847eb 	strb	w11, [sp, #529]
    518c:	3d8023e0 	str	q0, [sp, #128]
    5190:	b804535f 	stur	wzr, [x26, #69]
    5194:	f9010fe9 	str	x9, [sp, #536]
    5198:	f90113e8 	str	x8, [sp, #544]
    519c:	3600015f 	tbz	wzr, #0, 51c4 <_ZN4core4cell4once17OnceCell$LT$T$GT$8try_init17h6577ec651d954e20E+0x438>
    51a0:	4e080f20 	dup	v0.2d, x25
    51a4:	9103a7e8 	add	x8, sp, #0xe9
    51a8:	a9117eff 	stp	xzr, xzr, [x23, #272]
    51ac:	390843ff 	strb	wzr, [sp, #528]
    51b0:	a9137eff 	stp	xzr, xzr, [x23, #304]
    51b4:	3c8ff100 	stur	q0, [x8, #255]
    51b8:	394733e8 	ldrb	w8, [sp, #460]
    51bc:	39084fff 	strb	wzr, [sp, #531]
    51c0:	390847e8 	strb	w8, [sp, #529]
    51c4:	f94113ec 	ldr	x12, [sp, #544]
    51c8:	f90107ff 	str	xzr, [sp, #520]
    51cc:	39084bff 	strb	wzr, [sp, #530]
    51d0:	79042bff 	strh	wzr, [sp, #532]
    51d4:	b400688c 	cbz	x12, 5ee4 <_ZN4core4cell4once17OnceCell$LT$T$GT$8try_init17h6577ec651d954e20E+0x1158>
    51d8:	aa1f03ea 	mov	x10, xzr
    51dc:	f9410fee 	ldr	x14, [sp, #536]
    51e0:	d100058f 	sub	x15, x12, #0x1
    51e4:	aa0e03ed 	mov	x13, x14
    51e8:	384015b1 	ldrb	w17, [x13], #1
    51ec:	f9010fed 	str	x13, [sp, #536]
    51f0:	f90113ef 	str	x15, [sp, #544]
    51f4:	340003f1 	cbz	w17, 5270 <_ZN4core4cell4once17OnceCell$LT$T$GT$8try_init17h6577ec651d954e20E+0x4e4>
    51f8:	394747f0 	ldrb	w16, [sp, #465]
    51fc:	6b100232 	subs	w18, w17, w16
    5200:	54000602 	b.cs	52c0 <_ZN4core4cell4once17OnceCell$LT$T$GT$8try_init17h6577ec651d954e20E+0x534>  // b.hs, b.nlast
    5204:	51000631 	sub	w17, w17, #0x1
    5208:	71002e3f 	cmp	w17, #0xb
    520c:	54002208 	b.hi	564c <_ZN4core4cell4once17OnceCell$LT$T$GT$8try_init17h6577ec651d954e20E+0x8c0>  // b.pmore
    5210:	10000092 	adr	x18, 5220 <_ZN4core4cell4once17OnceCell$LT$T$GT$8try_init17h6577ec651d954e20E+0x494>
    5214:	38716a80 	ldrb	w0, [x20, x17]
    5218:	8b000a52 	add	x18, x18, x0, lsl #2
    521c:	d61f0240 	br	x18
    5220:	b4005c4f 	cbz	x15, 5da8 <_ZN4core4cell4once17OnceCell$LT$T$GT$8try_init17h6577ec651d954e20E+0x101c>
    5224:	aa1f03ed 	mov	x13, xzr
    5228:	2a1f03eb 	mov	w11, wzr
    522c:	d1000988 	sub	x8, x12, #0x2
    5230:	910009c9 	add	x9, x14, #0x2
    5234:	385ff12f 	ldurb	w15, [x9, #-1]
    5238:	7100fd7f 	cmp	w11, #0x3f
    523c:	54000061 	b.ne	5248 <_ZN4core4cell4once17OnceCell$LT$T$GT$8try_init17h6577ec651d954e20E+0x4bc>  // b.any
    5240:	710005ff 	cmp	w15, #0x1
    5244:	54007768 	b.hi	6130 <_ZN4core4cell4once17OnceCell$LT$T$GT$8try_init17h6577ec651d954e20E+0x13a4>  // b.pmore
    5248:	924019f0 	and	x16, x15, #0x7f
    524c:	9acb2210 	lsl	x16, x16, x11
    5250:	aa0d020d 	orr	x13, x16, x13
    5254:	363831af 	tbz	w15, #7, 5888 <_ZN4core4cell4once17OnceCell$LT$T$GT$8try_init17h6577ec651d954e20E+0xafc>
    5258:	d1000508 	sub	x8, x8, #0x1
    525c:	91000529 	add	x9, x9, #0x1
    5260:	11001d6b 	add	w11, w11, #0x7
    5264:	b100051f 	cmn	x8, #0x1
    5268:	54fffe61 	b.ne	5234 <_ZN4core4cell4once17OnceCell$LT$T$GT$8try_init17h6577ec651d954e20E+0x4a8>  // b.any
    526c:	140002cc 	b	5d9c <_ZN4core4cell4once17OnceCell$LT$T$GT$8try_init17h6577ec651d954e20E+0x1010>
    5270:	b40059cf 	cbz	x15, 5da8 <_ZN4core4cell4once17OnceCell$LT$T$GT$8try_init17h6577ec651d954e20E+0x101c>
    5274:	aa1f03ea 	mov	x10, xzr
    5278:	2a1f03f1 	mov	w17, wzr
    527c:	d1000990 	sub	x16, x12, #0x2
    5280:	aa0d03ef 	mov	x15, x13
    5284:	384015f2 	ldrb	w18, [x15], #1
    5288:	7100fe3f 	cmp	w17, #0x3f
    528c:	54000061 	b.ne	5298 <_ZN4core4cell4once17OnceCell$LT$T$GT$8try_init17h6577ec651d954e20E+0x50c>  // b.any
    5290:	7100065f 	cmp	w18, #0x1
    5294:	54005968 	b.hi	5dc0 <_ZN4core4cell4once17OnceCell$LT$T$GT$8try_init17h6577ec651d954e20E+0x1034>  // b.pmore
    5298:	92401a40 	and	x0, x18, #0x7f
    529c:	9ad12000 	lsl	x0, x0, x17
    52a0:	aa0a000a 	orr	x10, x0, x10
    52a4:	363802b2 	tbz	w18, #7, 52f8 <_ZN4core4cell4once17OnceCell$LT$T$GT$8try_init17h6577ec651d954e20E+0x56c>
    52a8:	d1000610 	sub	x16, x16, #0x1
    52ac:	11001e31 	add	w17, w17, #0x7
    52b0:	aa0f03ed 	mov	x13, x15
    52b4:	b100061f 	cmn	x16, #0x1
    52b8:	54fffe61 	b.ne	5284 <_ZN4core4cell4once17OnceCell$LT$T$GT$8try_init17h6577ec651d954e20E+0x4f8>  // b.any
    52bc:	140002b8 	b	5d9c <_ZN4core4cell4once17OnceCell$LT$T$GT$8try_init17h6577ec651d954e20E+0x1010>
    52c0:	394743ed 	ldrb	w13, [sp, #464]
    52c4:	3400908d 	cbz	w13, 64d4 <_ZN4core4cell4once17OnceCell$LT$T$GT$8try_init17h6577ec651d954e20E+0x1748>
    52c8:	12001e4c 	and	w12, w18, #0xff
    52cc:	39873fee 	ldrsb	x14, [sp, #463]
    52d0:	1acd098c 	udiv	w12, w12, w13
    52d4:	1b0dc98d 	msub	w13, w12, w13, w18
    52d8:	ab2d01cd 	adds	x13, x14, w13, uxtb
    52dc:	540004a4 	b.mi	5370 <_ZN4core4cell4once17OnceCell$LT$T$GT$8try_init17h6577ec651d954e20E+0x5e4>  // b.first
    52e0:	f940fbee 	ldr	x14, [sp, #496]
    52e4:	8b0d01cd 	add	x13, x14, x13
    52e8:	394843ee 	ldrb	w14, [sp, #528]
    52ec:	f900fbed 	str	x13, [sp, #496]
    52f0:	3600050e 	tbz	w14, #0, 5390 <_ZN4core4cell4once17OnceCell$LT$T$GT$8try_init17h6577ec651d954e20E+0x604>
    52f4:	1400003e 	b	53ec <_ZN4core4cell4once17OnceCell$LT$T$GT$8try_init17h6577ec651d954e20E+0x660>
    52f8:	eb0a020c 	subs	x12, x16, x10
    52fc:	54007583 	b.cc	61ac <_ZN4core4cell4once17OnceCell$LT$T$GT$8try_init17h6577ec651d954e20E+0x1420>  // b.lo, b.ul, b.last
    5300:	8b0a01ee 	add	x14, x15, x10
    5304:	f90113ec 	str	x12, [sp, #544]
    5308:	f9010fee 	str	x14, [sp, #536]
    530c:	b400750a 	cbz	x10, 61ac <_ZN4core4cell4once17OnceCell$LT$T$GT$8try_init17h6577ec651d954e20E+0x1420>
    5310:	394005ae 	ldrb	w14, [x13, #1]
    5314:	f9003ffa 	str	x26, [sp, #120]
    5318:	aa1403fa 	mov	x26, x20
    531c:	d100054c 	sub	x12, x10, #0x1
    5320:	910009b4 	add	x20, x13, #0x2
    5324:	710009df 	cmp	w14, #0x2
    5328:	5400092c 	b.gt	544c <_ZN4core4cell4once17OnceCell$LT$T$GT$8try_init17h6577ec651d954e20E+0x6c0>
    532c:	710005df 	cmp	w14, #0x1
    5330:	54001ca0 	b.eq	56c4 <_ZN4core4cell4once17OnceCell$LT$T$GT$8try_init17h6577ec651d954e20E+0x938>  // b.none
    5334:	710009df 	cmp	w14, #0x2
    5338:	54001f61 	b.ne	5724 <_ZN4core4cell4once17OnceCell$LT$T$GT$8try_init17h6577ec651d954e20E+0x998>  // b.any
    533c:	394723ea 	ldrb	w10, [sp, #456]
    5340:	2a1f03e8 	mov	w8, wzr
    5344:	71000d5f 	cmp	w10, #0x3
    5348:	540022cc 	b.gt	57a0 <_ZN4core4cell4once17OnceCell$LT$T$GT$8try_init17h6577ec651d954e20E+0xa14>
    534c:	7100055f 	cmp	w10, #0x1
    5350:	54003340 	b.eq	59b8 <_ZN4core4cell4once17OnceCell$LT$T$GT$8try_init17h6577ec651d954e20E+0xc2c>  // b.none
    5354:	7100095f 	cmp	w10, #0x2
    5358:	2a0803e9 	mov	w9, w8
    535c:	540053a1 	b.ne	5dd0 <_ZN4core4cell4once17OnceCell$LT$T$GT$8try_init17h6577ec651d954e20E+0x1044>  // b.any
    5360:	f100059f 	cmp	x12, #0x1
    5364:	54007329 	b.ls	61c8 <_ZN4core4cell4once17OnceCell$LT$T$GT$8try_init17h6577ec651d954e20E+0x143c>  // b.plast
    5368:	79400296 	ldrh	w22, [x20]
    536c:	14000199 	b	59d0 <_ZN4core4cell4once17OnceCell$LT$T$GT$8try_init17h6577ec651d954e20E+0xc44>
    5370:	f940fbee 	ldr	x14, [sp, #496]
    5374:	cb0d03ef 	neg	x15, x13
    5378:	8b0d01cd 	add	x13, x14, x13
    537c:	eb0f01df 	cmp	x14, x15
    5380:	9a8d33ed 	csel	x13, xzr, x13, cc  // cc = lo, ul, last
    5384:	394843ee 	ldrb	w14, [sp, #528]
    5388:	f900fbed 	str	x13, [sp, #496]
    538c:	3700030e 	tbnz	w14, #0, 53ec <_ZN4core4cell4once17OnceCell$LT$T$GT$8try_init17h6577ec651d954e20E+0x660>
    5390:	39473bee 	ldrb	w14, [sp, #462]
    5394:	394737ed 	ldrb	w13, [sp, #461]
    5398:	710005df 	cmp	w14, #0x1
    539c:	540000e0 	b.eq	53b8 <_ZN4core4cell4once17OnceCell$LT$T$GT$8try_init17h6577ec651d954e20E+0x62c>  // b.none
    53a0:	340089ee 	cbz	w14, 64dc <_ZN4core4cell4once17OnceCell$LT$T$GT$8try_init17h6577ec651d954e20E+0x1750>
    53a4:	f940f3ef 	ldr	x15, [sp, #480]
    53a8:	8b0c01ef 	add	x15, x15, x12
    53ac:	9ace09ec 	udiv	x12, x15, x14
    53b0:	9b0ebd8e 	msub	x14, x12, x14, x15
    53b4:	14000002 	b	53bc <_ZN4core4cell4once17OnceCell$LT$T$GT$8try_init17h6577ec651d954e20E+0x630>
    53b8:	aa1f03ee 	mov	x14, xzr
    53bc:	9b0d7d8c 	mul	x12, x12, x13
    53c0:	f940efed 	ldr	x13, [sp, #472]
    53c4:	f900f3ee 	str	x14, [sp, #480]
    53c8:	ab0d018c 	adds	x12, x12, x13
    53cc:	54007142 	b.cs	61f4 <_ZN4core4cell4once17OnceCell$LT$T$GT$8try_init17h6577ec651d954e20E+0x1468>  // b.hs, b.nlast
    53d0:	394723ed 	ldrb	w13, [sp, #456]
    53d4:	4b0d0fed 	neg	w13, w13, lsl #3
    53d8:	121d09ad 	and	w13, w13, #0x38
    53dc:	9acd266d 	lsr	x13, x19, x13
    53e0:	eb0d019f 	cmp	x12, x13
    53e4:	54007088 	b.hi	61f4 <_ZN4core4cell4once17OnceCell$LT$T$GT$8try_init17h6577ec651d954e20E+0x1468>  // b.pmore
    53e8:	f900efec 	str	x12, [sp, #472]
    53ec:	394843ec 	ldrb	w12, [sp, #528]
    53f0:	39484fea 	ldrb	w10, [sp, #531]
    53f4:	7100059f 	cmp	w12, #0x1
    53f8:	54004281 	b.ne	5c48 <_ZN4core4cell4once17OnceCell$LT$T$GT$8try_init17h6577ec651d954e20E+0xebc>  // b.any
    53fc:	360001aa 	tbz	w10, #0, 5430 <_ZN4core4cell4once17OnceCell$LT$T$GT$8try_init17h6577ec651d954e20E+0x6a4>
    5400:	4e080f20 	dup	v0.2d, x25
    5404:	9103a7ea 	add	x10, sp, #0xe9
    5408:	a9117eff 	stp	xzr, xzr, [x23, #272]
    540c:	a9137eff 	stp	xzr, xzr, [x23, #304]
    5410:	f900a2ff 	str	xzr, [x23, #320]
    5414:	3c8ff140 	stur	q0, [x10, #255]
    5418:	394733ea 	ldrb	w10, [sp, #460]
    541c:	390522ff 	strb	wzr, [x23, #328]
    5420:	390847ea 	strb	w10, [sp, #529]
    5424:	5280200a 	mov	w10, #0x100                 	// #256
    5428:	b804535f 	stur	wzr, [x26, #69]
    542c:	14000005 	b	5440 <_ZN4core4cell4once17OnceCell$LT$T$GT$8try_init17h6577ec651d954e20E+0x6b4>
    5430:	f90107ff 	str	xzr, [sp, #520]
    5434:	5280200a 	mov	w10, #0x100                 	// #256
    5438:	39084bff 	strb	wzr, [sp, #530]
    543c:	79042bff 	strh	wzr, [sp, #532]
    5440:	f94113ec 	ldr	x12, [sp, #544]
    5444:	b5ffeccc 	cbnz	x12, 51dc <_ZN4core4cell4once17OnceCell$LT$T$GT$8try_init17h6577ec651d954e20E+0x450>
    5448:	140002a7 	b	5ee4 <_ZN4core4cell4once17OnceCell$LT$T$GT$8try_init17h6577ec651d954e20E+0x1158>
    544c:	f9403bef 	ldr	x15, [sp, #112]
    5450:	71000ddf 	cmp	w14, #0x3
    5454:	54001480 	b.eq	56e4 <_ZN4core4cell4once17OnceCell$LT$T$GT$8try_init17h6577ec651d954e20E+0x958>  // b.none
    5458:	710011df 	cmp	w14, #0x4
    545c:	54001641 	b.ne	5724 <_ZN4core4cell4once17OnceCell$LT$T$GT$8try_init17h6577ec651d954e20E+0x998>  // b.any
    5460:	b4006b4c 	cbz	x12, 61c8 <_ZN4core4cell4once17OnceCell$LT$T$GT$8try_init17h6577ec651d954e20E+0x143c>
    5464:	aa1f03ed 	mov	x13, xzr
    5468:	2a1f03e8 	mov	w8, wzr
    546c:	aa0c03e9 	mov	x9, x12
    5470:	aa1403ea 	mov	x10, x20
    5474:	3840154b 	ldrb	w11, [x10], #1
    5478:	7100fd1f 	cmp	w8, #0x3f
    547c:	54000061 	b.ne	5488 <_ZN4core4cell4once17OnceCell$LT$T$GT$8try_init17h6577ec651d954e20E+0x6fc>  // b.any
    5480:	7100057f 	cmp	w11, #0x1
    5484:	540068a8 	b.hi	6198 <_ZN4core4cell4once17OnceCell$LT$T$GT$8try_init17h6577ec651d954e20E+0x140c>  // b.pmore
    5488:	9240196e 	and	x14, x11, #0x7f
    548c:	9ac821ce 	lsl	x14, x14, x8
    5490:	aa0d01cd 	orr	x13, x14, x13
    5494:	3638266b 	tbz	w11, #7, 5960 <_ZN4core4cell4once17OnceCell$LT$T$GT$8try_init17h6577ec651d954e20E+0xbd4>
    5498:	d1000529 	sub	x9, x9, #0x1
    549c:	11001d08 	add	w8, w8, #0x7
    54a0:	b5fffea9 	cbnz	x9, 5474 <_ZN4core4cell4once17OnceCell$LT$T$GT$8try_init17h6577ec651d954e20E+0x6e8>
    54a4:	14000348 	b	61c4 <_ZN4core4cell4once17OnceCell$LT$T$GT$8try_init17h6577ec651d954e20E+0x1438>
    54a8:	b400480f 	cbz	x15, 5da8 <_ZN4core4cell4once17OnceCell$LT$T$GT$8try_init17h6577ec651d954e20E+0x101c>
    54ac:	aa1f03e8 	mov	x8, xzr
    54b0:	2a1f03e9 	mov	w9, wzr
    54b4:	d100098b 	sub	x11, x12, #0x2
    54b8:	910009cd 	add	x13, x14, #0x2
    54bc:	385ff1aa 	ldurb	w10, [x13, #-1]
    54c0:	7100fd3f 	cmp	w9, #0x3f
    54c4:	54000061 	b.ne	54d0 <_ZN4core4cell4once17OnceCell$LT$T$GT$8try_init17h6577ec651d954e20E+0x744>  // b.any
    54c8:	7100055f 	cmp	w10, #0x1
    54cc:	540064a8 	b.hi	6160 <_ZN4core4cell4once17OnceCell$LT$T$GT$8try_init17h6577ec651d954e20E+0x13d4>  // b.pmore
    54d0:	9240194f 	and	x15, x10, #0x7f
    54d4:	9ac921ef 	lsl	x15, x15, x9
    54d8:	aa0801e8 	orr	x8, x15, x8
    54dc:	3638198a 	tbz	w10, #7, 580c <_ZN4core4cell4once17OnceCell$LT$T$GT$8try_init17h6577ec651d954e20E+0xa80>
    54e0:	d100056b 	sub	x11, x11, #0x1
    54e4:	910005ad 	add	x13, x13, #0x1
    54e8:	11001d29 	add	w9, w9, #0x7
    54ec:	b100057f 	cmn	x11, #0x1
    54f0:	54fffe61 	b.ne	54bc <_ZN4core4cell4once17OnceCell$LT$T$GT$8try_init17h6577ec651d954e20E+0x730>  // b.any
    54f4:	1400022a 	b	5d9c <_ZN4core4cell4once17OnceCell$LT$T$GT$8try_init17h6577ec651d954e20E+0x1010>
    54f8:	b400458f 	cbz	x15, 5da8 <_ZN4core4cell4once17OnceCell$LT$T$GT$8try_init17h6577ec651d954e20E+0x101c>
    54fc:	aa1f03e8 	mov	x8, xzr
    5500:	2a1f03ea 	mov	w10, wzr
    5504:	d1000989 	sub	x9, x12, #0x2
    5508:	910009cb 	add	x11, x14, #0x2
    550c:	385ff16d 	ldurb	w13, [x11, #-1]
    5510:	7100fd5f 	cmp	w10, #0x3f
    5514:	54000061 	b.ne	5520 <_ZN4core4cell4once17OnceCell$LT$T$GT$8try_init17h6577ec651d954e20E+0x794>  // b.any
    5518:	710005bf 	cmp	w13, #0x1
    551c:	54006328 	b.hi	6180 <_ZN4core4cell4once17OnceCell$LT$T$GT$8try_init17h6577ec651d954e20E+0x13f4>  // b.pmore
    5520:	924019af 	and	x15, x13, #0x7f
    5524:	9aca21ef 	lsl	x15, x15, x10
    5528:	aa0801e8 	orr	x8, x15, x8
    552c:	3638186d 	tbz	w13, #7, 5838 <_ZN4core4cell4once17OnceCell$LT$T$GT$8try_init17h6577ec651d954e20E+0xaac>
    5530:	d1000529 	sub	x9, x9, #0x1
    5534:	9100056b 	add	x11, x11, #0x1
    5538:	11001d4a 	add	w10, w10, #0x7
    553c:	b100053f 	cmn	x9, #0x1
    5540:	54fffe61 	b.ne	550c <_ZN4core4cell4once17OnceCell$LT$T$GT$8try_init17h6577ec651d954e20E+0x780>  // b.any
    5544:	14000216 	b	5d9c <_ZN4core4cell4once17OnceCell$LT$T$GT$8try_init17h6577ec651d954e20E+0x1010>
    5548:	aa1f03ea 	mov	x10, xzr
    554c:	390853f9 	strb	w25, [sp, #532]
    5550:	17ffffbc 	b	5440 <_ZN4core4cell4once17OnceCell$LT$T$GT$8try_init17h6577ec651d954e20E+0x6b4>
    5554:	d100c3a0 	sub	x0, x29, #0x30
    5558:	910542e1 	add	x1, x23, #0x150
    555c:	9400849c 	bl	267cc <_ZN5gimli4read6reader6Reader12read_sleb12817h339191270eccef95E>
    5560:	385d03a8 	ldurb	w8, [x29, #-48]
    5564:	f101491f 	cmp	x8, #0x52
    5568:	540073c1 	b.ne	63e0 <_ZN4core4cell4once17OnceCell$LT$T$GT$8try_init17h6577ec651d954e20E+0x1654>  // b.any
    556c:	f85d83ac 	ldur	x12, [x29, #-40]
    5570:	d348fd8b 	lsr	x11, x12, #8
    5574:	d350fd89 	lsr	x9, x12, #16
    5578:	d360fd88 	lsr	x8, x12, #32
    557c:	b7f8132c 	tbnz	x12, #63, 57e0 <_ZN4core4cell4once17OnceCell$LT$T$GT$8try_init17h6577ec651d954e20E+0xa54>
    5580:	f940fbed 	ldr	x13, [sp, #496]
    5584:	1400009e 	b	57fc <_ZN4core4cell4once17OnceCell$LT$T$GT$8try_init17h6577ec651d954e20E+0xa70>
    5588:	b400410f 	cbz	x15, 5da8 <_ZN4core4cell4once17OnceCell$LT$T$GT$8try_init17h6577ec651d954e20E+0x101c>
    558c:	aa1f03e8 	mov	x8, xzr
    5590:	2a1f03ea 	mov	w10, wzr
    5594:	d1000989 	sub	x9, x12, #0x2
    5598:	910009cb 	add	x11, x14, #0x2
    559c:	385ff16d 	ldurb	w13, [x11, #-1]
    55a0:	7100fd5f 	cmp	w10, #0x3f
    55a4:	54000061 	b.ne	55b0 <_ZN4core4cell4once17OnceCell$LT$T$GT$8try_init17h6577ec651d954e20E+0x824>  // b.any
    55a8:	710005bf 	cmp	w13, #0x1
    55ac:	54005ce8 	b.hi	6148 <_ZN4core4cell4once17OnceCell$LT$T$GT$8try_init17h6577ec651d954e20E+0x13bc>  // b.pmore
    55b0:	924019af 	and	x15, x13, #0x7f
    55b4:	9aca21ef 	lsl	x15, x15, x10
    55b8:	aa0801e8 	orr	x8, x15, x8
    55bc:	3638150d 	tbz	w13, #7, 585c <_ZN4core4cell4once17OnceCell$LT$T$GT$8try_init17h6577ec651d954e20E+0xad0>
    55c0:	d1000529 	sub	x9, x9, #0x1
    55c4:	9100056b 	add	x11, x11, #0x1
    55c8:	11001d4a 	add	w10, w10, #0x7
    55cc:	b100053f 	cmn	x9, #0x1
    55d0:	54fffe61 	b.ne	559c <_ZN4core4cell4once17OnceCell$LT$T$GT$8try_init17h6577ec651d954e20E+0x810>  // b.any
    55d4:	140001f2 	b	5d9c <_ZN4core4cell4once17OnceCell$LT$T$GT$8try_init17h6577ec651d954e20E+0x1010>
    55d8:	394743ec 	ldrb	w12, [sp, #464]
    55dc:	3400786c 	cbz	w12, 64e8 <_ZN4core4cell4once17OnceCell$LT$T$GT$8try_init17h6577ec651d954e20E+0x175c>
    55e0:	394843ed 	ldrb	w13, [sp, #528]
    55e4:	36000aed 	tbz	w13, #0, 5740 <_ZN4core4cell4once17OnceCell$LT$T$GT$8try_init17h6577ec651d954e20E+0x9b4>
    55e8:	aa1f03ea 	mov	x10, xzr
    55ec:	17ffff95 	b	5440 <_ZN4core4cell4once17OnceCell$LT$T$GT$8try_init17h6577ec651d954e20E+0x6b4>
    55f0:	394847ec 	ldrb	w12, [sp, #529]
    55f4:	aa1f03ea 	mov	x10, xzr
    55f8:	5200018c 	eor	w12, w12, #0x1
    55fc:	390847ec 	strb	w12, [sp, #529]
    5600:	17ffff90 	b	5440 <_ZN4core4cell4once17OnceCell$LT$T$GT$8try_init17h6577ec651d954e20E+0x6b4>
    5604:	aa1f03ea 	mov	x10, xzr
    5608:	39084bf9 	strb	w25, [sp, #530]
    560c:	17ffff8d 	b	5440 <_ZN4core4cell4once17OnceCell$LT$T$GT$8try_init17h6577ec651d954e20E+0x6b4>
    5610:	aa1f03ea 	mov	x10, xzr
    5614:	390857f9 	strb	w25, [sp, #533]
    5618:	17ffff8a 	b	5440 <_ZN4core4cell4once17OnceCell$LT$T$GT$8try_init17h6577ec651d954e20E+0x6b4>
    561c:	f10005ff 	cmp	x15, #0x1
    5620:	54006fe9 	b.ls	641c <_ZN4core4cell4once17OnceCell$LT$T$GT$8try_init17h6577ec651d954e20E+0x1690>  // b.plast
    5624:	91000dcb 	add	x11, x14, #0x3
    5628:	d1000d8c 	sub	x12, x12, #0x3
    562c:	394843ed 	ldrb	w13, [sp, #528]
    5630:	f9010feb 	str	x11, [sp, #536]
    5634:	f90113ec 	str	x12, [sp, #544]
    5638:	784011cc 	ldurh	w12, [x14, #1]
    563c:	53087d8b 	lsr	w11, w12, #8
    5640:	3600098d 	tbz	w13, #0, 5770 <_ZN4core4cell4once17OnceCell$LT$T$GT$8try_init17h6577ec651d954e20E+0x9e4>
    5644:	aa1f03ea 	mov	x10, xzr
    5648:	17ffff7e 	b	5440 <_ZN4core4cell4once17OnceCell$LT$T$GT$8try_init17h6577ec651d954e20E+0x6b4>
    564c:	a9584bf0 	ldp	x16, x18, [sp, #384]
    5650:	92401e2a 	and	x10, x17, #0xff
    5654:	eb0a025f 	cmp	x18, x10
    5658:	54006da3 	b.cc	640c <_ZN4core4cell4once17OnceCell$LT$T$GT$8try_init17h6577ec651d954e20E+0x1680>  // b.lo, b.ul, b.last
    565c:	8b0a0210 	add	x16, x16, x10
    5660:	54006ec0 	b.eq	6438 <_ZN4core4cell4once17OnceCell$LT$T$GT$8try_init17h6577ec651d954e20E+0x16ac>  // b.none
    5664:	3940020a 	ldrb	w10, [x16]
    5668:	34ffeeca 	cbz	w10, 5440 <_ZN4core4cell4once17OnceCell$LT$T$GT$8try_init17h6577ec651d954e20E+0x6b4>
    566c:	7100055f 	cmp	w10, #0x1
    5670:	54001241 	b.ne	58b8 <_ZN4core4cell4once17OnceCell$LT$T$GT$8try_init17h6577ec651d954e20E+0xb2c>  // b.any
    5674:	b40039af 	cbz	x15, 5da8 <_ZN4core4cell4once17OnceCell$LT$T$GT$8try_init17h6577ec651d954e20E+0x101c>
    5678:	aa1f03ed 	mov	x13, xzr
    567c:	2a1f03ea 	mov	w10, wzr
    5680:	d1000988 	sub	x8, x12, #0x2
    5684:	910009c9 	add	x9, x14, #0x2
    5688:	385ff12b 	ldurb	w11, [x9, #-1]
    568c:	7100fd5f 	cmp	w10, #0x3f
    5690:	54000061 	b.ne	569c <_ZN4core4cell4once17OnceCell$LT$T$GT$8try_init17h6577ec651d954e20E+0x910>  // b.any
    5694:	7100057f 	cmp	w11, #0x1
    5698:	54006068 	b.hi	62a4 <_ZN4core4cell4once17OnceCell$LT$T$GT$8try_init17h6577ec651d954e20E+0x1518>  // b.pmore
    569c:	9240196f 	and	x15, x11, #0x7f
    56a0:	9aca21ef 	lsl	x15, x15, x10
    56a4:	aa0d01ed 	orr	x13, x15, x13
    56a8:	3638206b 	tbz	w11, #7, 5ab4 <_ZN4core4cell4once17OnceCell$LT$T$GT$8try_init17h6577ec651d954e20E+0xd28>
    56ac:	d1000508 	sub	x8, x8, #0x1
    56b0:	91000529 	add	x9, x9, #0x1
    56b4:	11001d4a 	add	w10, w10, #0x7
    56b8:	b100051f 	cmn	x8, #0x1
    56bc:	54fffe61 	b.ne	5688 <_ZN4core4cell4once17OnceCell$LT$T$GT$8try_init17h6577ec651d954e20E+0x8fc>  // b.any
    56c0:	140001b7 	b	5d9c <_ZN4core4cell4once17OnceCell$LT$T$GT$8try_init17h6577ec651d954e20E+0x1010>
    56c4:	aa1a03f4 	mov	x20, x26
    56c8:	f9403ffa 	ldr	x26, [sp, #120]
    56cc:	39084ff9 	strb	w25, [sp, #531]
    56d0:	394843ec 	ldrb	w12, [sp, #528]
    56d4:	12001f2a 	and	w10, w25, #0xff
    56d8:	7100059f 	cmp	w12, #0x1
    56dc:	54ffe900 	b.eq	53fc <_ZN4core4cell4once17OnceCell$LT$T$GT$8try_init17h6577ec651d954e20E+0x670>  // b.none
    56e0:	1400015a 	b	5c48 <_ZN4core4cell4once17OnceCell$LT$T$GT$8try_init17h6577ec651d954e20E+0xebc>
    56e4:	794397e8 	ldrh	w8, [sp, #458]
    56e8:	7100151f 	cmp	w8, #0x5
    56ec:	540001c2 	b.cs	5724 <_ZN4core4cell4once17OnceCell$LT$T$GT$8try_init17h6577ec651d954e20E+0x998>  // b.hs, b.nlast
    56f0:	b40056cc 	cbz	x12, 61c8 <_ZN4core4cell4once17OnceCell$LT$T$GT$8try_init17h6577ec651d954e20E+0x143c>
    56f4:	aa1f03f5 	mov	x21, xzr
    56f8:	d1000d49 	sub	x9, x10, #0x3
    56fc:	d1001148 	sub	x8, x10, #0x4
    5700:	aa1403ea 	mov	x10, x20
    5704:	3840154b 	ldrb	w11, [x10], #1
    5708:	3400190b 	cbz	w11, 5a28 <_ZN4core4cell4once17OnceCell$LT$T$GT$8try_init17h6577ec651d954e20E+0xc9c>
    570c:	910006b5 	add	x21, x21, #0x1
    5710:	d1000529 	sub	x9, x9, #0x1
    5714:	d1000508 	sub	x8, x8, #0x1
    5718:	eb15019f 	cmp	x12, x21
    571c:	54ffff41 	b.ne	5704 <_ZN4core4cell4once17OnceCell$LT$T$GT$8try_init17h6577ec651d954e20E+0x978>  // b.any
    5720:	140002aa 	b	61c8 <_ZN4core4cell4once17OnceCell$LT$T$GT$8try_init17h6577ec651d954e20E+0x143c>
    5724:	aa1f03ea 	mov	x10, xzr
    5728:	d348fe8b 	lsr	x11, x20, #8
    572c:	d350fe89 	lsr	x9, x20, #16
    5730:	d360fe88 	lsr	x8, x20, #32
    5734:	aa1a03f4 	mov	x20, x26
    5738:	f9403ffa 	ldr	x26, [sp, #120]
    573c:	17ffff41 	b	5440 <_ZN4core4cell4once17OnceCell$LT$T$GT$8try_init17h6577ec651d954e20E+0x6b4>
    5740:	52001e0d 	eor	w13, w16, #0xff
    5744:	39473bee 	ldrb	w14, [sp, #462]
    5748:	1acc09ac 	udiv	w12, w13, w12
    574c:	394737ed 	ldrb	w13, [sp, #461]
    5750:	710005df 	cmp	w14, #0x1
    5754:	54001140 	b.eq	597c <_ZN4core4cell4once17OnceCell$LT$T$GT$8try_init17h6577ec651d954e20E+0xbf0>  // b.none
    5758:	34006c2e 	cbz	w14, 64dc <_ZN4core4cell4once17OnceCell$LT$T$GT$8try_init17h6577ec651d954e20E+0x1750>
    575c:	f940f3ef 	ldr	x15, [sp, #480]
    5760:	8b0c01ef 	add	x15, x15, x12
    5764:	9ace09ec 	udiv	x12, x15, x14
    5768:	9b0ebd8e 	msub	x14, x12, x14, x15
    576c:	14000085 	b	5980 <_ZN4core4cell4once17OnceCell$LT$T$GT$8try_init17h6577ec651d954e20E+0xbf4>
    5770:	f940efed 	ldr	x13, [sp, #472]
    5774:	ab0c01ac 	adds	x12, x13, x12
    5778:	540053e2 	b.cs	61f4 <_ZN4core4cell4once17OnceCell$LT$T$GT$8try_init17h6577ec651d954e20E+0x1468>  // b.hs, b.nlast
    577c:	394723ed 	ldrb	w13, [sp, #456]
    5780:	4b0d0fed 	neg	w13, w13, lsl #3
    5784:	121d09ad 	and	w13, w13, #0x38
    5788:	9acd266d 	lsr	x13, x19, x13
    578c:	eb0d019f 	cmp	x12, x13
    5790:	54005328 	b.hi	61f4 <_ZN4core4cell4once17OnceCell$LT$T$GT$8try_init17h6577ec651d954e20E+0x1468>  // b.pmore
    5794:	aa1f03ea 	mov	x10, xzr
    5798:	a91dffec 	stp	x12, xzr, [sp, #472]
    579c:	17ffff29 	b	5440 <_ZN4core4cell4once17OnceCell$LT$T$GT$8try_init17h6577ec651d954e20E+0x6b4>
    57a0:	7100115f 	cmp	w10, #0x4
    57a4:	54001100 	b.eq	59c4 <_ZN4core4cell4once17OnceCell$LT$T$GT$8try_init17h6577ec651d954e20E+0xc38>  // b.none
    57a8:	7100215f 	cmp	w10, #0x8
    57ac:	2a0803e9 	mov	w9, w8
    57b0:	54003101 	b.ne	5dd0 <_ZN4core4cell4once17OnceCell$LT$T$GT$8try_init17h6577ec651d954e20E+0x1044>  // b.any
    57b4:	f1001d9f 	cmp	x12, #0x7
    57b8:	54005089 	b.ls	61c8 <_ZN4core4cell4once17OnceCell$LT$T$GT$8try_init17h6577ec651d954e20E+0x143c>  // b.plast
    57bc:	394021a8 	ldrb	w8, [x13, #8]
    57c0:	79400da9 	ldrh	w9, [x13, #6]
    57c4:	b84021ab 	ldur	w11, [x13, #2]
    57c8:	2a084128 	orr	w8, w9, w8, lsl #16
    57cc:	d378dd69 	lsl	x9, x11, #8
    57d0:	394025ab 	ldrb	w11, [x13, #9]
    57d4:	aa08a128 	orr	x8, x9, x8, lsl #40
    57d8:	93c82176 	extr	x22, x11, x8, #8
    57dc:	1400007d 	b	59d0 <_ZN4core4cell4once17OnceCell$LT$T$GT$8try_init17h6577ec651d954e20E+0xc44>
    57e0:	f940fbed 	ldr	x13, [sp, #496]
    57e4:	cb0c03ea 	neg	x10, x12
    57e8:	eb0a01bf 	cmp	x13, x10
    57ec:	54000082 	b.cs	57fc <_ZN4core4cell4once17OnceCell$LT$T$GT$8try_init17h6577ec651d954e20E+0xa70>  // b.hs, b.nlast
    57f0:	aa1f03ea 	mov	x10, xzr
    57f4:	f900fbff 	str	xzr, [sp, #496]
    57f8:	17ffff12 	b	5440 <_ZN4core4cell4once17OnceCell$LT$T$GT$8try_init17h6577ec651d954e20E+0x6b4>
    57fc:	aa1f03ea 	mov	x10, xzr
    5800:	8b0c01ac 	add	x12, x13, x12
    5804:	f900fbec 	str	x12, [sp, #496]
    5808:	17ffff0e 	b	5440 <_ZN4core4cell4once17OnceCell$LT$T$GT$8try_init17h6577ec651d954e20E+0x6b4>
    580c:	d348fd0c 	lsr	x12, x8, #8
    5810:	f90113eb 	str	x11, [sp, #544]
    5814:	d360fd0b 	lsr	x11, x8, #32
    5818:	d350fd09 	lsr	x9, x8, #16
    581c:	aa1f03ea 	mov	x10, xzr
    5820:	f9010fed 	str	x13, [sp, #536]
    5824:	f90037e8 	str	x8, [sp, #104]
    5828:	f90103e8 	str	x8, [sp, #512]
    582c:	2a0b03e8 	mov	w8, w11
    5830:	2a0c03eb 	mov	w11, w12
    5834:	17ffff03 	b	5440 <_ZN4core4cell4once17OnceCell$LT$T$GT$8try_init17h6577ec651d954e20E+0x6b4>
    5838:	aa1f03ea 	mov	x10, xzr
    583c:	f9010feb 	str	x11, [sp, #536]
    5840:	d348fd0b 	lsr	x11, x8, #8
    5844:	d350fd0c 	lsr	x12, x8, #16
    5848:	f90113e9 	str	x9, [sp, #544]
    584c:	d360fd0d 	lsr	x13, x8, #32
    5850:	f90033e8 	str	x8, [sp, #96]
    5854:	f900ffe8 	str	x8, [sp, #504]
    5858:	14000009 	b	587c <_ZN4core4cell4once17OnceCell$LT$T$GT$8try_init17h6577ec651d954e20E+0xaf0>
    585c:	f9010feb 	str	x11, [sp, #536]
    5860:	d348fd0b 	lsr	x11, x8, #8
    5864:	d350fd0c 	lsr	x12, x8, #16
    5868:	d360fd0d 	lsr	x13, x8, #32
    586c:	aa1f03ea 	mov	x10, xzr
    5870:	f90113e9 	str	x9, [sp, #544]
    5874:	f9002fe8 	str	x8, [sp, #88]
    5878:	f900f7e8 	str	x8, [sp, #488]
    587c:	2a0c03e9 	mov	w9, w12
    5880:	2a0d03e8 	mov	w8, w13
    5884:	17fffeef 	b	5440 <_ZN4core4cell4once17OnceCell$LT$T$GT$8try_init17h6577ec651d954e20E+0x6b4>
    5888:	d350fdac 	lsr	x12, x13, #16
    588c:	d360fdae 	lsr	x14, x13, #32
    5890:	394843ef 	ldrb	w15, [sp, #528]
    5894:	d348fdab 	lsr	x11, x13, #8
    5898:	f9010fe9 	str	x9, [sp, #536]
    589c:	f90113e8 	str	x8, [sp, #544]
    58a0:	2a0c03e9 	mov	w9, w12
    58a4:	2a0e03e8 	mov	w8, w14
    58a8:	36000f2f 	tbz	w15, #0, 5a8c <_ZN4core4cell4once17OnceCell$LT$T$GT$8try_init17h6577ec651d954e20E+0xd00>
    58ac:	aa1f03ea 	mov	x10, xzr
    58b0:	f9002bed 	str	x13, [sp, #80]
    58b4:	17fffee3 	b	5440 <_ZN4core4cell4once17OnceCell$LT$T$GT$8try_init17h6577ec651d954e20E+0x6b4>
    58b8:	aa0d03ec 	mov	x12, x13
    58bc:	aa0f03f1 	mov	x17, x15
    58c0:	52800030 	mov	w16, #0x1                   	// #1
    58c4:	b4005231 	cbz	x17, 6308 <_ZN4core4cell4once17OnceCell$LT$T$GT$8try_init17h6577ec651d954e20E+0x157c>
    58c8:	aa1f03ee 	mov	x14, xzr
    58cc:	2a1f03e1 	mov	w1, wzr
    58d0:	d1000620 	sub	x0, x17, #0x1
    58d4:	91000592 	add	x18, x12, #0x1
    58d8:	385ff242 	ldurb	w2, [x18, #-1]
    58dc:	7100fc3f 	cmp	w1, #0x3f
    58e0:	54000061 	b.ne	58ec <_ZN4core4cell4once17OnceCell$LT$T$GT$8try_init17h6577ec651d954e20E+0xb60>  // b.any
    58e4:	7100045f 	cmp	w2, #0x1
    58e8:	54004ca8 	b.hi	627c <_ZN4core4cell4once17OnceCell$LT$T$GT$8try_init17h6577ec651d954e20E+0x14f0>  // b.pmore
    58ec:	92401843 	and	x3, x2, #0x7f
    58f0:	9ac12063 	lsl	x3, x3, x1
    58f4:	aa0e006e 	orr	x14, x3, x14
    58f8:	363800e2 	tbz	w2, #7, 5914 <_ZN4core4cell4once17OnceCell$LT$T$GT$8try_init17h6577ec651d954e20E+0xb88>
    58fc:	d1000400 	sub	x0, x0, #0x1
    5900:	91000652 	add	x18, x18, #0x1
    5904:	11001c21 	add	w1, w1, #0x7
    5908:	b100041f 	cmn	x0, #0x1
    590c:	54fffe61 	b.ne	58d8 <_ZN4core4cell4once17OnceCell$LT$T$GT$8try_init17h6577ec651d954e20E+0xb4c>  // b.any
    5910:	14000261 	b	6294 <_ZN4core4cell4once17OnceCell$LT$T$GT$8try_init17h6577ec651d954e20E+0x1508>
    5914:	eb0a021f 	cmp	x16, x10
    5918:	91000610 	add	x16, x16, #0x1
    591c:	aa1203ec 	mov	x12, x18
    5920:	aa0003f1 	mov	x17, x0
    5924:	f9010ff2 	str	x18, [sp, #536]
    5928:	f90113e0 	str	x0, [sp, #544]
    592c:	f90027ee 	str	x14, [sp, #72]
    5930:	54fffca1 	b.ne	58c4 <_ZN4core4cell4once17OnceCell$LT$T$GT$8try_init17h6577ec651d954e20E+0xb38>  // b.any
    5934:	cb0d024a 	sub	x10, x18, x13
    5938:	eb0a01ff 	cmp	x15, x10
    593c:	54005a63 	b.cc	6488 <_ZN4core4cell4once17OnceCell$LT$T$GT$8try_init17h6577ec651d954e20E+0x16fc>  // b.lo, b.ul, b.last
    5940:	d348fdab 	lsr	x11, x13, #8
    5944:	d350fda9 	lsr	x9, x13, #16
    5948:	d360fda8 	lsr	x8, x13, #32
    594c:	aa1f03ea 	mov	x10, xzr
    5950:	f90027ee 	str	x14, [sp, #72]
    5954:	52800039 	mov	w25, #0x1                   	// #1
    5958:	92800013 	mov	x19, #0xffffffffffffffff    	// #-1
    595c:	17fffeb9 	b	5440 <_ZN4core4cell4once17OnceCell$LT$T$GT$8try_init17h6577ec651d954e20E+0x6b4>
    5960:	d350fda9 	lsr	x9, x13, #16
    5964:	d348fdab 	lsr	x11, x13, #8
    5968:	d360fda8 	lsr	x8, x13, #32
    596c:	aa1f03ea 	mov	x10, xzr
    5970:	f90107ed 	str	x13, [sp, #520]
    5974:	f9003bed 	str	x13, [sp, #112]
    5978:	17ffff6f 	b	5734 <_ZN4core4cell4once17OnceCell$LT$T$GT$8try_init17h6577ec651d954e20E+0x9a8>
    597c:	aa1f03ee 	mov	x14, xzr
    5980:	9b0d7d8c 	mul	x12, x12, x13
    5984:	f940efed 	ldr	x13, [sp, #472]
    5988:	f900f3ee 	str	x14, [sp, #480]
    598c:	ab0d018c 	adds	x12, x12, x13
    5990:	54004322 	b.cs	61f4 <_ZN4core4cell4once17OnceCell$LT$T$GT$8try_init17h6577ec651d954e20E+0x1468>  // b.hs, b.nlast
    5994:	394723ed 	ldrb	w13, [sp, #456]
    5998:	4b0d0fed 	neg	w13, w13, lsl #3
    599c:	121d09ad 	and	w13, w13, #0x38
    59a0:	9acd266d 	lsr	x13, x19, x13
    59a4:	eb0d019f 	cmp	x12, x13
    59a8:	54004268 	b.hi	61f4 <_ZN4core4cell4once17OnceCell$LT$T$GT$8try_init17h6577ec651d954e20E+0x1468>  // b.pmore
    59ac:	aa1f03ea 	mov	x10, xzr
    59b0:	f900efec 	str	x12, [sp, #472]
    59b4:	17fffea3 	b	5440 <_ZN4core4cell4once17OnceCell$LT$T$GT$8try_init17h6577ec651d954e20E+0x6b4>
    59b8:	b400408c 	cbz	x12, 61c8 <_ZN4core4cell4once17OnceCell$LT$T$GT$8try_init17h6577ec651d954e20E+0x143c>
    59bc:	39400296 	ldrb	w22, [x20]
    59c0:	14000004 	b	59d0 <_ZN4core4cell4once17OnceCell$LT$T$GT$8try_init17h6577ec651d954e20E+0xc44>
    59c4:	f1000d9f 	cmp	x12, #0x3
    59c8:	54004009 	b.ls	61c8 <_ZN4core4cell4once17OnceCell$LT$T$GT$8try_init17h6577ec651d954e20E+0x143c>  // b.plast
    59cc:	b9400296 	ldr	w22, [x20]
    59d0:	f940efec 	ldr	x12, [sp, #472]
    59d4:	d348fecb 	lsr	x11, x22, #8
    59d8:	d350fec9 	lsr	x9, x22, #16
    59dc:	d360fec8 	lsr	x8, x22, #32
    59e0:	aa1a03f4 	mov	x20, x26
    59e4:	eb0c02df 	cmp	x22, x12
    59e8:	540000a2 	b.cs	59fc <_ZN4core4cell4once17OnceCell$LT$T$GT$8try_init17h6577ec651d954e20E+0xc70>  // b.hs, b.nlast
    59ec:	f9403ffa 	ldr	x26, [sp, #120]
    59f0:	aa1f03ea 	mov	x10, xzr
    59f4:	390843f9 	strb	w25, [sp, #528]
    59f8:	17fffe92 	b	5440 <_ZN4core4cell4once17OnceCell$LT$T$GT$8try_init17h6577ec651d954e20E+0x6b4>
    59fc:	4b0a0fea 	neg	w10, w10, lsl #3
    5a00:	f9403ffa 	ldr	x26, [sp, #120]
    5a04:	121d094a 	and	w10, w10, #0x38
    5a08:	9aca266a 	lsr	x10, x19, x10
    5a0c:	eb0a02df 	cmp	x22, x10
    5a10:	1a9f17ea 	cset	w10, eq  // eq = none
    5a14:	390843ea 	strb	w10, [sp, #528]
    5a18:	aa1f03ea 	mov	x10, xzr
    5a1c:	54ffd120 	b.eq	5440 <_ZN4core4cell4once17OnceCell$LT$T$GT$8try_init17h6577ec651d954e20E+0x6b4>  // b.none
    5a20:	a91dfff6 	stp	x22, xzr, [sp, #472]
    5a24:	17fffe87 	b	5440 <_ZN4core4cell4once17OnceCell$LT$T$GT$8try_init17h6577ec651d954e20E+0x6b4>
    5a28:	aa3503ea 	mvn	x10, x21
    5a2c:	8b15028b 	add	x11, x20, x21
    5a30:	ab0a018d 	adds	x13, x12, x10
    5a34:	9100056c 	add	x12, x11, #0x1
    5a38:	54004680 	b.eq	6308 <_ZN4core4cell4once17OnceCell$LT$T$GT$8try_init17h6577ec651d954e20E+0x157c>  // b.none
    5a3c:	aa1f03f9 	mov	x25, xzr
    5a40:	2a1f03ee 	mov	w14, wzr
    5a44:	aa0c03ea 	mov	x10, x12
    5a48:	aa0c03eb 	mov	x11, x12
    5a4c:	3840156f 	ldrb	w15, [x11], #1
    5a50:	7100fddf 	cmp	w14, #0x3f
    5a54:	54000061 	b.ne	5a60 <_ZN4core4cell4once17OnceCell$LT$T$GT$8try_init17h6577ec651d954e20E+0xcd4>  // b.any
    5a58:	710005ff 	cmp	w15, #0x1
    5a5c:	54001b28 	b.hi	5dc0 <_ZN4core4cell4once17OnceCell$LT$T$GT$8try_init17h6577ec651d954e20E+0x1034>  // b.pmore
    5a60:	924019f0 	and	x16, x15, #0x7f
    5a64:	9ace2210 	lsl	x16, x16, x14
    5a68:	aa190219 	orr	x25, x16, x25
    5a6c:	363805cf 	tbz	w15, #7, 5b24 <_ZN4core4cell4once17OnceCell$LT$T$GT$8try_init17h6577ec651d954e20E+0xd98>
    5a70:	d1000529 	sub	x9, x9, #0x1
    5a74:	11001dce 	add	w14, w14, #0x7
    5a78:	d1000508 	sub	x8, x8, #0x1
    5a7c:	b100053f 	cmn	x9, #0x1
    5a80:	aa0b03ea 	mov	x10, x11
    5a84:	54fffe41 	b.ne	5a4c <_ZN4core4cell4once17OnceCell$LT$T$GT$8try_init17h6577ec651d954e20E+0xcc0>  // b.any
    5a88:	1400021f 	b	6304 <_ZN4core4cell4once17OnceCell$LT$T$GT$8try_init17h6577ec651d954e20E+0x1578>
    5a8c:	39473bee 	ldrb	w14, [sp, #462]
    5a90:	394737ec 	ldrb	w12, [sp, #461]
    5a94:	710005df 	cmp	w14, #0x1
    5a98:	54000240 	b.eq	5ae0 <_ZN4core4cell4once17OnceCell$LT$T$GT$8try_init17h6577ec651d954e20E+0xd54>  // b.none
    5a9c:	3400520e 	cbz	w14, 64dc <_ZN4core4cell4once17OnceCell$LT$T$GT$8try_init17h6577ec651d954e20E+0x1750>
    5aa0:	f940f3ef 	ldr	x15, [sp, #480]
    5aa4:	8b0d01f0 	add	x16, x15, x13
    5aa8:	9ace0a0f 	udiv	x15, x16, x14
    5aac:	9b0ec1ee 	msub	x14, x15, x14, x16
    5ab0:	1400000e 	b	5ae8 <_ZN4core4cell4once17OnceCell$LT$T$GT$8try_init17h6577ec651d954e20E+0xd5c>
    5ab4:	d350fdab 	lsr	x11, x13, #16
    5ab8:	d348fdac 	lsr	x12, x13, #8
    5abc:	d360fdae 	lsr	x14, x13, #32
    5ac0:	aa1f03ea 	mov	x10, xzr
    5ac4:	f9010fe9 	str	x9, [sp, #536]
    5ac8:	f90113e8 	str	x8, [sp, #544]
    5acc:	2a0b03e9 	mov	w9, w11
    5ad0:	2a0e03e8 	mov	w8, w14
    5ad4:	2a0c03eb 	mov	w11, w12
    5ad8:	f90017ed 	str	x13, [sp, #40]
    5adc:	17fffe59 	b	5440 <_ZN4core4cell4once17OnceCell$LT$T$GT$8try_init17h6577ec651d954e20E+0x6b4>
    5ae0:	aa1f03ee 	mov	x14, xzr
    5ae4:	aa0d03ef 	mov	x15, x13
    5ae8:	9b0c7dec 	mul	x12, x15, x12
    5aec:	f940efef 	ldr	x15, [sp, #472]
    5af0:	f900f3ee 	str	x14, [sp, #480]
    5af4:	ab0f018c 	adds	x12, x12, x15
    5af8:	540037e2 	b.cs	61f4 <_ZN4core4cell4once17OnceCell$LT$T$GT$8try_init17h6577ec651d954e20E+0x1468>  // b.hs, b.nlast
    5afc:	394723ee 	ldrb	w14, [sp, #456]
    5b00:	4b0e0fee 	neg	w14, w14, lsl #3
    5b04:	121d09ce 	and	w14, w14, #0x38
    5b08:	9ace266e 	lsr	x14, x19, x14
    5b0c:	eb0e019f 	cmp	x12, x14
    5b10:	54003728 	b.hi	61f4 <_ZN4core4cell4once17OnceCell$LT$T$GT$8try_init17h6577ec651d954e20E+0x1468>  // b.pmore
    5b14:	aa1f03ea 	mov	x10, xzr
    5b18:	f900efec 	str	x12, [sp, #472]
    5b1c:	f9002bed 	str	x13, [sp, #80]
    5b20:	17fffe48 	b	5440 <_ZN4core4cell4once17OnceCell$LT$T$GT$8try_init17h6577ec651d954e20E+0x6b4>
    5b24:	b4004989 	cbz	x9, 6454 <_ZN4core4cell4once17OnceCell$LT$T$GT$8try_init17h6577ec651d954e20E+0x16c8>
    5b28:	aa1f03f3 	mov	x19, xzr
    5b2c:	2a1f03ed 	mov	w13, wzr
    5b30:	91000529 	add	x9, x9, #0x1
    5b34:	aa0b03ec 	mov	x12, x11
    5b38:	3840158e 	ldrb	w14, [x12], #1
    5b3c:	7100fdbf 	cmp	w13, #0x3f
    5b40:	54000061 	b.ne	5b4c <_ZN4core4cell4once17OnceCell$LT$T$GT$8try_init17h6577ec651d954e20E+0xdc0>  // b.any
    5b44:	710005df 	cmp	w14, #0x1
    5b48:	540013c8 	b.hi	5dc0 <_ZN4core4cell4once17OnceCell$LT$T$GT$8try_init17h6577ec651d954e20E+0x1034>  // b.pmore
    5b4c:	924019cf 	and	x15, x14, #0x7f
    5b50:	9acd21ef 	lsl	x15, x15, x13
    5b54:	aa1301f3 	orr	x19, x15, x19
    5b58:	363800ee 	tbz	w14, #7, 5b74 <_ZN4core4cell4once17OnceCell$LT$T$GT$8try_init17h6577ec651d954e20E+0xde8>
    5b5c:	d1000508 	sub	x8, x8, #0x1
    5b60:	11001dad 	add	w13, w13, #0x7
    5b64:	aa0c03eb 	mov	x11, x12
    5b68:	b100051f 	cmn	x8, #0x1
    5b6c:	54fffe61 	b.ne	5b38 <_ZN4core4cell4once17OnceCell$LT$T$GT$8try_init17h6577ec651d954e20E+0xdac>  // b.any
    5b70:	14000238 	b	6450 <_ZN4core4cell4once17OnceCell$LT$T$GT$8try_init17h6577ec651d954e20E+0x16c4>
    5b74:	b4003ca8 	cbz	x8, 6308 <_ZN4core4cell4once17OnceCell$LT$T$GT$8try_init17h6577ec651d954e20E+0x157c>
    5b78:	aa1f03f8 	mov	x24, xzr
    5b7c:	2a1f03ea 	mov	w10, wzr
    5b80:	91000509 	add	x9, x8, #0x1
    5b84:	3840158d 	ldrb	w13, [x12], #1
    5b88:	7100fd5f 	cmp	w10, #0x3f
    5b8c:	54000061 	b.ne	5b98 <_ZN4core4cell4once17OnceCell$LT$T$GT$8try_init17h6577ec651d954e20E+0xe0c>  // b.any
    5b90:	710005bf 	cmp	w13, #0x1
    5b94:	54001168 	b.hi	5dc0 <_ZN4core4cell4once17OnceCell$LT$T$GT$8try_init17h6577ec651d954e20E+0x1034>  // b.pmore
    5b98:	924019ae 	and	x14, x13, #0x7f
    5b9c:	9aca21ce 	lsl	x14, x14, x10
    5ba0:	aa1801d8 	orr	x24, x14, x24
    5ba4:	363800ad 	tbz	w13, #7, 5bb8 <_ZN4core4cell4once17OnceCell$LT$T$GT$8try_init17h6577ec651d954e20E+0xe2c>
    5ba8:	d1000508 	sub	x8, x8, #0x1
    5bac:	11001d4a 	add	w10, w10, #0x7
    5bb0:	b5fffea8 	cbnz	x8, 5b84 <_ZN4core4cell4once17OnceCell$LT$T$GT$8try_init17h6577ec651d954e20E+0xdf8>
    5bb4:	1400022e 	b	646c <_ZN4core4cell4once17OnceCell$LT$T$GT$8try_init17h6577ec651d954e20E+0x16e0>
    5bb8:	f940bfe9 	ldr	x9, [sp, #376]
    5bbc:	f940b7e8 	ldr	x8, [sp, #360]
    5bc0:	eb08013f 	cmp	x9, x8
    5bc4:	f90013e9 	str	x9, [sp, #32]
    5bc8:	54000061 	b.ne	5bd4 <_ZN4core4cell4once17OnceCell$LT$T$GT$8try_init17h6577ec651d954e20E+0xe48>  // b.any
    5bcc:	910282e0 	add	x0, x23, #0xa0
    5bd0:	97fffbec 	bl	4b80 <_ZN5alloc7raw_vec19RawVec$LT$T$C$A$GT$8grow_one17h118103f54922d7ffE>
    5bd4:	f94013ed 	ldr	x13, [sp, #32]
    5bd8:	f940bbe8 	ldr	x8, [sp, #368]
    5bdc:	52800b09 	mov	w9, #0x58                  	// #88
    5be0:	d360fe8c 	lsr	x12, x20, #32
    5be4:	d348fe8b 	lsr	x11, x20, #8
    5be8:	aa1f03ea 	mov	x10, xzr
    5bec:	9b0921a8 	madd	x8, x13, x9, x8
    5bf0:	528003e9 	mov	w9, #0x1f                  	// #31
    5bf4:	910005ad 	add	x13, x13, #0x1
    5bf8:	a9005109 	stp	x9, x20, [x8]
    5bfc:	528005c9 	mov	w9, #0x2e                  	// #46
    5c00:	39006109 	strb	w9, [x8, #24]
    5c04:	d350fe89 	lsr	x9, x20, #16
    5c08:	f9000915 	str	x21, [x8, #16]
    5c0c:	f00002b5 	adrp	x21, 5c000 <__do_global_dtors_aux_fini_array_entry+0x14e8>
    5c10:	912062b5 	add	x21, x21, #0x818
    5c14:	39007d1f 	strb	wzr, [x8, #31]
    5c18:	7801d11f 	sturh	wzr, [x8, #29]
    5c1c:	b801911f 	stur	wzr, [x8, #25]
    5c20:	a9034d19 	stp	x25, x19, [x8, #48]
    5c24:	52800039 	mov	w25, #0x1                   	// #1
    5c28:	92800013 	mov	x19, #0xffffffffffffffff    	// #-1
    5c2c:	a904fd1f 	stp	xzr, xzr, [x8, #72]
    5c30:	f9002118 	str	x24, [x8, #64]
    5c34:	2a0c03e8 	mov	w8, w12
    5c38:	f00002b8 	adrp	x24, 5c000 <__do_global_dtors_aux_fini_array_entry+0x14e8>
    5c3c:	9120c318 	add	x24, x24, #0x830
    5c40:	f900bfed 	str	x13, [sp, #376]
    5c44:	17fffebc 	b	5734 <_ZN4core4cell4once17OnceCell$LT$T$GT$8try_init17h6577ec651d954e20E+0x9a8>
    5c48:	3600030a 	tbz	w10, #0, 5ca8 <_ZN4core4cell4once17OnceCell$LT$T$GT$8try_init17h6577ec651d954e20E+0xf1c>
    5c4c:	f94003f8 	ldr	x24, [sp]
    5c50:	b40006f8 	cbz	x24, 5d2c <_ZN4core4cell4once17OnceCell$LT$T$GT$8try_init17h6577ec651d954e20E+0xfa0>
    5c54:	a94b57e8 	ldp	x8, x21, [sp, #176]
    5c58:	f9003ffa 	str	x26, [sp, #120]
    5c5c:	aa1403fa 	mov	x26, x20
    5c60:	f940eff3 	ldr	x19, [sp, #472]
    5c64:	3dc023e0 	ldr	q0, [sp, #128]
    5c68:	f90063ff 	str	xzr, [sp, #192]
    5c6c:	f94002b4 	ldr	x20, [x21]
    5c70:	eb18011f 	cmp	x8, x24
    5c74:	3d802fe0 	str	q0, [sp, #176]
    5c78:	540005e9 	b.ls	5d34 <_ZN4core4cell4once17OnceCell$LT$T$GT$8try_init17h6577ec651d954e20E+0xfa8>  // b.plast
    5c7c:	8b180709 	add	x9, x24, x24, lsl #1
    5c80:	8b080508 	add	x8, x8, x8, lsl #1
    5c84:	aa1503e0 	mov	x0, x21
    5c88:	52800102 	mov	w2, #0x8                   	// #8
    5c8c:	d37df13b 	lsl	x27, x9, #3
    5c90:	d37df101 	lsl	x1, x8, #3
    5c94:	aa1b03e3 	mov	x3, x27
    5c98:	94000de3 	bl	9424 <_RNvCsiGVaDesi5rv_7___rustc14___rust_realloc>
    5c9c:	aa0003f9 	mov	x25, x0
    5ca0:	b50004c0 	cbnz	x0, 5d38 <_ZN4core4cell4once17OnceCell$LT$T$GT$8try_init17h6577ec651d954e20E+0xfac>
    5ca4:	14000217 	b	6500 <_ZN4core4cell4once17OnceCell$LT$T$GT$8try_init17h6577ec651d954e20E+0x1774>
    5ca8:	f9003ffa 	str	x26, [sp, #120]
    5cac:	aa1403fa 	mov	x26, x20
    5cb0:	f940eff8 	ldr	x24, [sp, #472]
    5cb4:	f940f7f5 	ldr	x21, [sp, #488]
    5cb8:	b941f3f4 	ldr	w20, [sp, #496]
    5cbc:	b941fbf3 	ldr	w19, [sp, #504]
    5cc0:	f94003ea 	ldr	x10, [sp]
    5cc4:	b400016a 	cbz	x10, 5cf0 <_ZN4core4cell4once17OnceCell$LT$T$GT$8try_init17h6577ec651d954e20E+0xf64>
    5cc8:	52800308 	mov	w8, #0x18                  	// #24
    5ccc:	9b086d48 	madd	x8, x10, x8, x27
    5cd0:	d1006109 	sub	x9, x8, #0x18
    5cd4:	b40000e9 	cbz	x9, 5cf0 <_ZN4core4cell4once17OnceCell$LT$T$GT$8try_init17h6577ec651d954e20E+0xf64>
    5cd8:	f9400129 	ldr	x9, [x9]
    5cdc:	eb18013f 	cmp	x9, x24
    5ce0:	54000081 	b.ne	5cf0 <_ZN4core4cell4once17OnceCell$LT$T$GT$8try_init17h6577ec651d954e20E+0xf64>  // b.any
    5ce4:	f81f0115 	stur	x21, [x8, #-16]
    5ce8:	293f4d14 	stp	w20, w19, [x8, #-8]
    5cec:	14000022 	b	5d74 <_ZN4core4cell4once17OnceCell$LT$T$GT$8try_init17h6577ec651d954e20E+0xfe8>
    5cf0:	f9405be8 	ldr	x8, [sp, #176]
    5cf4:	eb08015f 	cmp	x10, x8
    5cf8:	54000081 	b.ne	5d08 <_ZN4core4cell4once17OnceCell$LT$T$GT$8try_init17h6577ec651d954e20E+0xf7c>  // b.any
    5cfc:	9102c3e0 	add	x0, sp, #0xb0
    5d00:	94000250 	bl	6640 <_ZN5alloc7raw_vec19RawVec$LT$T$C$A$GT$8grow_one17h8aa5fe4f2d21d34fE>
    5d04:	f9405ffb 	ldr	x27, [sp, #184]
    5d08:	f94003e9 	ldr	x9, [sp]
    5d0c:	52800308 	mov	w8, #0x18                  	// #24
    5d10:	9b086d28 	madd	x8, x9, x8, x27
    5d14:	91000529 	add	x9, x9, #0x1
    5d18:	f90003e9 	str	x9, [sp]
    5d1c:	a9005518 	stp	x24, x21, [x8]
    5d20:	29024d14 	stp	w20, w19, [x8, #16]
    5d24:	f90063e9 	str	x9, [sp, #192]
    5d28:	14000013 	b	5d74 <_ZN4core4cell4once17OnceCell$LT$T$GT$8try_init17h6577ec651d954e20E+0xfe8>
    5d2c:	f90003ff 	str	xzr, [sp]
    5d30:	14000014 	b	5d80 <_ZN4core4cell4once17OnceCell$LT$T$GT$8try_init17h6577ec651d954e20E+0xff4>
    5d34:	aa1503f9 	mov	x25, x21
    5d38:	f94057f5 	ldr	x21, [sp, #168]
    5d3c:	f9404fe8 	ldr	x8, [sp, #152]
    5d40:	eb0802bf 	cmp	x21, x8
    5d44:	54000061 	b.ne	5d50 <_ZN4core4cell4once17OnceCell$LT$T$GT$8try_init17h6577ec651d954e20E+0xfc4>  // b.any
    5d48:	910263e0 	add	x0, sp, #0x98
    5d4c:	940007ee 	bl	7d04 <_ZN5alloc7raw_vec19RawVec$LT$T$C$A$GT$8grow_one17h1353df0b97ca0e95E>
    5d50:	f94053e8 	ldr	x8, [sp, #160]
    5d54:	910006a9 	add	x9, x21, #0x1
    5d58:	5280011b 	mov	w27, #0x8                   	// #8
    5d5c:	f90057e9 	str	x9, [sp, #168]
    5d60:	8b151508 	add	x8, x8, x21, lsl #5
    5d64:	f90003ff 	str	xzr, [sp]
    5d68:	a9006119 	stp	x25, x24, [x8]
    5d6c:	52800039 	mov	w25, #0x1                   	// #1
    5d70:	a9014d14 	stp	x20, x19, [x8, #16]
    5d74:	aa1a03f4 	mov	x20, x26
    5d78:	f9403ffa 	ldr	x26, [sp, #120]
    5d7c:	92800013 	mov	x19, #0xffffffffffffffff    	// #-1
    5d80:	39484fed 	ldrb	w13, [sp, #531]
    5d84:	f00002b5 	adrp	x21, 5c000 <__do_global_dtors_aux_fini_array_entry+0x14e8>
    5d88:	912062b5 	add	x21, x21, #0x818
    5d8c:	f00002b8 	adrp	x24, 5c000 <__do_global_dtors_aux_fini_array_entry+0x14e8>
    5d90:	9120c318 	add	x24, x24, #0x830
    5d94:	3707a06d 	tbnz	w13, #0, 51a0 <_ZN4core4cell4once17OnceCell$LT$T$GT$8try_init17h6577ec651d954e20E+0x414>
    5d98:	17fffd0b 	b	51c4 <_ZN4core4cell4once17OnceCell$LT$T$GT$8try_init17h6577ec651d954e20E+0x438>
    5d9c:	8b0c01cd 	add	x13, x14, x12
    5da0:	f90113ff 	str	xzr, [sp, #544]
    5da4:	f9010fed 	str	x13, [sp, #536]
    5da8:	2a1f03ea 	mov	w10, wzr
    5dac:	2a1f03e8 	mov	w8, wzr
    5db0:	2a1f03e9 	mov	w9, wzr
    5db4:	5280027c 	mov	w28, #0x13                  	// #19
    5db8:	aa0d03f6 	mov	x22, x13
    5dbc:	14000005 	b	5dd0 <_ZN4core4cell4once17OnceCell$LT$T$GT$8try_init17h6577ec651d954e20E+0x1044>
    5dc0:	2a1f03ea 	mov	w10, wzr
    5dc4:	2a1f03e8 	mov	w8, wzr
    5dc8:	2a1f03e9 	mov	w9, wzr
    5dcc:	528000dc 	mov	w28, #0x6                   	// #6
    5dd0:	53103d29 	lsl	w9, w9, #16
    5dd4:	b3781d5c 	bfi	x28, x10, #8, #8
    5dd8:	f90113ff 	str	xzr, [sp, #544]
    5ddc:	aa088128 	orr	x8, x9, x8, lsl #32
    5de0:	52800029 	mov	w9, #0x1                   	// #1
    5de4:	f9010fe9 	str	x9, [sp, #536]
    5de8:	aa1c0117 	orr	x23, x8, x28
    5dec:	f94023fc 	ldr	x28, [sp, #64]
    5df0:	f94093e8 	ldr	x8, [sp, #288]
    5df4:	b4000088 	cbz	x8, 5e04 <_ZN4core4cell4once17OnceCell$LT$T$GT$8try_init17h6577ec651d954e20E+0x1078>
    5df8:	f94097e0 	ldr	x0, [sp, #296]
    5dfc:	52800041 	mov	w1, #0x2                   	// #2
    5e00:	94000d88 	bl	9420 <_RNvCsiGVaDesi5rv_7___rustc14___rust_dealloc>
    5e04:	f9409fe8 	ldr	x8, [sp, #312]
    5e08:	b4000088 	cbz	x8, 5e18 <_ZN4core4cell4once17OnceCell$LT$T$GT$8try_init17h6577ec651d954e20E+0x108c>
    5e0c:	f940a3e0 	ldr	x0, [sp, #320]
    5e10:	52800101 	mov	w1, #0x8                   	// #8
    5e14:	94000d83 	bl	9420 <_RNvCsiGVaDesi5rv_7___rustc14___rust_dealloc>
    5e18:	f940abe8 	ldr	x8, [sp, #336]
    5e1c:	b4000088 	cbz	x8, 5e2c <_ZN4core4cell4once17OnceCell$LT$T$GT$8try_init17h6577ec651d954e20E+0x10a0>
    5e20:	f940afe0 	ldr	x0, [sp, #344]
    5e24:	52800041 	mov	w1, #0x2                   	// #2
    5e28:	94000d7e 	bl	9420 <_RNvCsiGVaDesi5rv_7___rustc14___rust_dealloc>
    5e2c:	f940b7e8 	ldr	x8, [sp, #360]
    5e30:	b4000088 	cbz	x8, 5e40 <_ZN4core4cell4once17OnceCell$LT$T$GT$8try_init17h6577ec651d954e20E+0x10b4>
    5e34:	f940bbe0 	ldr	x0, [sp, #368]
    5e38:	52800101 	mov	w1, #0x8                   	// #8
    5e3c:	94000d79 	bl	9420 <_RNvCsiGVaDesi5rv_7___rustc14___rust_dealloc>
    5e40:	f9405be8 	ldr	x8, [sp, #176]
    5e44:	b4000088 	cbz	x8, 5e54 <_ZN4core4cell4once17OnceCell$LT$T$GT$8try_init17h6577ec651d954e20E+0x10c8>
    5e48:	f9405fe0 	ldr	x0, [sp, #184]
    5e4c:	52800101 	mov	w1, #0x8                   	// #8
    5e50:	94000d74 	bl	9420 <_RNvCsiGVaDesi5rv_7___rustc14___rust_dealloc>
    5e54:	a94a4ff4 	ldp	x20, x19, [sp, #160]
    5e58:	b4000193 	cbz	x19, 5e88 <_ZN4core4cell4once17OnceCell$LT$T$GT$8try_init17h6577ec651d954e20E+0x10fc>
    5e5c:	91002295 	add	x21, x20, #0x8
    5e60:	14000004 	b	5e70 <_ZN4core4cell4once17OnceCell$LT$T$GT$8try_init17h6577ec651d954e20E+0x10e4>
    5e64:	f1000673 	subs	x19, x19, #0x1
    5e68:	910082b5 	add	x21, x21, #0x20
    5e6c:	540000e0 	b.eq	5e88 <_ZN4core4cell4once17OnceCell$LT$T$GT$8try_init17h6577ec651d954e20E+0x10fc>  // b.none
    5e70:	f94002a8 	ldr	x8, [x21]
    5e74:	b4ffff88 	cbz	x8, 5e64 <_ZN4core4cell4once17OnceCell$LT$T$GT$8try_init17h6577ec651d954e20E+0x10d8>
    5e78:	f85f82a0 	ldur	x0, [x21, #-8]
    5e7c:	52800101 	mov	w1, #0x8                   	// #8
    5e80:	94000d68 	bl	9420 <_RNvCsiGVaDesi5rv_7___rustc14___rust_dealloc>
    5e84:	17fffff8 	b	5e64 <_ZN4core4cell4once17OnceCell$LT$T$GT$8try_init17h6577ec651d954e20E+0x10d8>
    5e88:	f9404fe8 	ldr	x8, [sp, #152]
    5e8c:	b4000088 	cbz	x8, 5e9c <_ZN4core4cell4once17OnceCell$LT$T$GT$8try_init17h6577ec651d954e20E+0x1110>
    5e90:	aa1403e0 	mov	x0, x20
    5e94:	52800101 	mov	w1, #0x8                   	// #8
    5e98:	94000d62 	bl	9420 <_RNvCsiGVaDesi5rv_7___rustc14___rust_dealloc>
    5e9c:	aa1f03f4 	mov	x20, xzr
    5ea0:	b9400388 	ldr	w8, [x28]
    5ea4:	7100051f 	cmp	w8, #0x1
    5ea8:	54002f40 	b.eq	6490 <_ZN4core4cell4once17OnceCell$LT$T$GT$8try_init17h6577ec651d954e20E+0x1704>  // b.none
    5eac:	52800028 	mov	w8, #0x1                   	// #1
    5eb0:	aa1c03e0 	mov	x0, x28
    5eb4:	a9015b97 	stp	x23, x22, [x28, #16]
    5eb8:	f9000388 	str	x8, [x28]
    5ebc:	f8008c14 	str	x20, [x0, #8]!
    5ec0:	f9001393 	str	x19, [x28, #32]
    5ec4:	9109c3ff 	add	sp, sp, #0x270
    5ec8:	a9454ff4 	ldp	x20, x19, [sp, #80]
    5ecc:	a94457f6 	ldp	x22, x21, [sp, #64]
    5ed0:	a9435ff8 	ldp	x24, x23, [sp, #48]
    5ed4:	a94267fa 	ldp	x26, x25, [sp, #32]
    5ed8:	a9416ffc 	ldp	x28, x27, [sp, #16]
    5edc:	a8c67bfd 	ldp	x29, x30, [sp], #96
    5ee0:	d65f03c0 	ret
    5ee4:	f94057e1 	ldr	x1, [sp, #168]
    5ee8:	f100083f 	cmp	x1, #0x2
    5eec:	54002c42 	b.cs	6474 <_ZN4core4cell4once17OnceCell$LT$T$GT$8try_init17h6577ec651d954e20E+0x16e8>  // b.hs, b.nlast
    5ef0:	794397e8 	ldrh	w8, [sp, #458]
    5ef4:	a943f3e1 	ldp	x1, x28, [sp, #56]
    5ef8:	52800109 	mov	w9, #0x8                   	// #8
    5efc:	f81c83bf 	stur	xzr, [x29, #-56]
    5f00:	7100151f 	cmp	w8, #0x5
    5f04:	a93ba7bf 	stp	xzr, x9, [x29, #-72]
    5f08:	540000c2 	b.cs	5f20 <_ZN4core4cell4once17OnceCell$LT$T$GT$8try_init17h6577ec651d954e20E+0x1194>  // b.hs, b.nlast
    5f0c:	f94067e8 	ldr	x8, [sp, #200]
    5f10:	f100b91f 	cmp	x8, #0x2e
    5f14:	54000220 	b.eq	5f58 <_ZN4core4cell4once17OnceCell$LT$T$GT$8try_init17h6577ec651d954e20E+0x11cc>  // b.none
    5f18:	910323e3 	add	x3, sp, #0xc8
    5f1c:	14000004 	b	5f2c <_ZN4core4cell4once17OnceCell$LT$T$GT$8try_init17h6577ec651d954e20E+0x11a0>
    5f20:	f940bfe8 	ldr	x8, [sp, #376]
    5f24:	b40001a8 	cbz	x8, 5f58 <_ZN4core4cell4once17OnceCell$LT$T$GT$8try_init17h6577ec651d954e20E+0x11cc>
    5f28:	f940bbe3 	ldr	x3, [sp, #368]
    5f2c:	f9401be2 	ldr	x2, [sp, #48]
    5f30:	d100c3a0 	sub	x0, x29, #0x30
    5f34:	910323e4 	add	x4, sp, #0xc8
    5f38:	94008396 	bl	26d90 <_ZN9addr2line4line11render_file17h525362569e4345c0E>
    5f3c:	a97d63b7 	ldp	x23, x24, [x29, #-48]
    5f40:	d2f00008 	mov	x8, #0x8000000000000000    	// #-9223372036854775808
    5f44:	f85e03b6 	ldur	x22, [x29, #-32]
    5f48:	eb0802ff 	cmp	x23, x8
    5f4c:	54000261 	b.ne	5f98 <_ZN4core4cell4once17OnceCell$LT$T$GT$8try_init17h6577ec651d954e20E+0x120c>  // b.any
    5f50:	52800114 	mov	w20, #0x8                   	// #8
    5f54:	14000054 	b	60a4 <_ZN4core4cell4once17OnceCell$LT$T$GT$8try_init17h6577ec651d954e20E+0x1318>
    5f58:	d10123a0 	sub	x0, x29, #0x48
    5f5c:	940001b9 	bl	6640 <_ZN5alloc7raw_vec19RawVec$LT$T$C$A$GT$8grow_one17h8aa5fe4f2d21d34fE>
    5f60:	aa1f03f7 	mov	x23, xzr
    5f64:	aa1f03f6 	mov	x22, xzr
    5f68:	52800038 	mov	w24, #0x1                   	// #1
    5f6c:	1400000d 	b	5fa0 <_ZN4core4cell4once17OnceCell$LT$T$GT$8try_init17h6577ec651d954e20E+0x1214>
    5f70:	a940c6ef 	ldp	x15, x17, [x23, #8]
    5f74:	d348fdee 	lsr	x14, x15, #8
    5f78:	d350fdf0 	lsr	x16, x15, #16
    5f7c:	92607ded 	and	x13, x15, #0xffffffff00000000
    5f80:	f9400ef2 	ldr	x18, [x23, #24]
    5f84:	3dc00ee0 	ldr	q0, [x23, #48]
    5f88:	f94022e0 	ldr	x0, [x23, #64]
    5f8c:	f100ba5f 	cmp	x18, #0x2e
    5f90:	54ff87a0 	b.eq	5084 <_ZN4core4cell4once17OnceCell$LT$T$GT$8try_init17h6577ec651d954e20E+0x2f8>  // b.none
    5f94:	17fffc29 	b	5038 <_ZN4core4cell4once17OnceCell$LT$T$GT$8try_init17h6577ec651d954e20E+0x2ac>
    5f98:	d10123a0 	sub	x0, x29, #0x48
    5f9c:	940001a9 	bl	6640 <_ZN5alloc7raw_vec19RawVec$LT$T$C$A$GT$8grow_one17h8aa5fe4f2d21d34fE>
    5fa0:	f85c03b5 	ldur	x21, [x29, #-64]
    5fa4:	aa1f03f3 	mov	x19, xzr
    5fa8:	aa1f03f4 	mov	x20, xzr
    5fac:	d2f00019 	mov	x25, #0x8000000000000000    	// #-9223372036854775808
    5fb0:	52800b1a 	mov	w26, #0x58                  	// #88
    5fb4:	a90062b7 	stp	x23, x24, [x21]
    5fb8:	52800037 	mov	w23, #0x1                   	// #1
    5fbc:	f9000ab6 	str	x22, [x21, #16]
    5fc0:	14000007 	b	5fdc <_ZN4core4cell4once17OnceCell$LT$T$GT$8try_init17h6577ec651d954e20E+0x1250>
    5fc4:	8b1302a8 	add	x8, x21, x19
    5fc8:	910006f7 	add	x23, x23, #0x1
    5fcc:	91016294 	add	x20, x20, #0x58
    5fd0:	a901e11b 	stp	x27, x24, [x8, #24]
    5fd4:	91006273 	add	x19, x19, #0x18
    5fd8:	f9001516 	str	x22, [x8, #40]
    5fdc:	794397e8 	ldrh	w8, [sp, #458]
    5fe0:	f81c83b7 	stur	x23, [x29, #-56]
    5fe4:	7100151f 	cmp	w8, #0x5
    5fe8:	54000122 	b.cs	600c <_ZN4core4cell4once17OnceCell$LT$T$GT$8try_init17h6577ec651d954e20E+0x1280>  // b.hs, b.nlast
    5fec:	b40001d7 	cbz	x23, 6024 <_ZN4core4cell4once17OnceCell$LT$T$GT$8try_init17h6577ec651d954e20E+0x1298>
    5ff0:	f940bfe8 	ldr	x8, [sp, #376]
    5ff4:	d10006e9 	sub	x9, x23, #0x1
    5ff8:	eb08013f 	cmp	x9, x8
    5ffc:	54000622 	b.cs	60c0 <_ZN4core4cell4once17OnceCell$LT$T$GT$8try_init17h6577ec651d954e20E+0x1334>  // b.hs, b.nlast
    6000:	f940bbe8 	ldr	x8, [sp, #368]
    6004:	8b140103 	add	x3, x8, x20
    6008:	1400000b 	b	6034 <_ZN4core4cell4once17OnceCell$LT$T$GT$8try_init17h6577ec651d954e20E+0x12a8>
    600c:	f940bfe8 	ldr	x8, [sp, #376]
    6010:	eb0802ff 	cmp	x23, x8
    6014:	54000562 	b.cs	60c0 <_ZN4core4cell4once17OnceCell$LT$T$GT$8try_init17h6577ec651d954e20E+0x1334>  // b.hs, b.nlast
    6018:	f940bbe8 	ldr	x8, [sp, #368]
    601c:	9b1a22e3 	madd	x3, x23, x26, x8
    6020:	14000005 	b	6034 <_ZN4core4cell4once17OnceCell$LT$T$GT$8try_init17h6577ec651d954e20E+0x12a8>
    6024:	f94067e8 	ldr	x8, [sp, #200]
    6028:	f100b91f 	cmp	x8, #0x2e
    602c:	540015c0 	b.eq	62e4 <_ZN4core4cell4once17OnceCell$LT$T$GT$8try_init17h6577ec651d954e20E+0x1558>  // b.none
    6030:	910323e3 	add	x3, sp, #0xc8
    6034:	a94307e2 	ldp	x2, x1, [sp, #48]
    6038:	d100c3a0 	sub	x0, x29, #0x30
    603c:	910323e4 	add	x4, sp, #0xc8
    6040:	94008354 	bl	26d90 <_ZN9addr2line4line11render_file17h525362569e4345c0E>
    6044:	a97d63bb 	ldp	x27, x24, [x29, #-48]
    6048:	f85e03b6 	ldur	x22, [x29, #-32]
    604c:	eb19037f 	cmp	x27, x25
    6050:	54000100 	b.eq	6070 <_ZN4core4cell4once17OnceCell$LT$T$GT$8try_init17h6577ec651d954e20E+0x12e4>  // b.none
    6054:	f85b83a8 	ldur	x8, [x29, #-72]
    6058:	eb0802ff 	cmp	x23, x8
    605c:	54fffb41 	b.ne	5fc4 <_ZN4core4cell4once17OnceCell$LT$T$GT$8try_init17h6577ec651d954e20E+0x1238>  // b.any
    6060:	d10123a0 	sub	x0, x29, #0x48
    6064:	94000177 	bl	6640 <_ZN5alloc7raw_vec19RawVec$LT$T$C$A$GT$8grow_one17h8aa5fe4f2d21d34fE>
    6068:	f85c03b5 	ldur	x21, [x29, #-64]
    606c:	17ffffd6 	b	5fc4 <_ZN4core4cell4once17OnceCell$LT$T$GT$8try_init17h6577ec651d954e20E+0x1238>
    6070:	f85c03b4 	ldur	x20, [x29, #-64]
    6074:	b4000197 	cbz	x23, 60a4 <_ZN4core4cell4once17OnceCell$LT$T$GT$8try_init17h6577ec651d954e20E+0x1318>
    6078:	91002293 	add	x19, x20, #0x8
    607c:	14000004 	b	608c <_ZN4core4cell4once17OnceCell$LT$T$GT$8try_init17h6577ec651d954e20E+0x1300>
    6080:	f10006f7 	subs	x23, x23, #0x1
    6084:	91006273 	add	x19, x19, #0x18
    6088:	540000e0 	b.eq	60a4 <_ZN4core4cell4once17OnceCell$LT$T$GT$8try_init17h6577ec651d954e20E+0x1318>  // b.none
    608c:	f85f8268 	ldur	x8, [x19, #-8]
    6090:	b4ffff88 	cbz	x8, 6080 <_ZN4core4cell4once17OnceCell$LT$T$GT$8try_init17h6577ec651d954e20E+0x12f4>
    6094:	f9400260 	ldr	x0, [x19]
    6098:	52800021 	mov	w1, #0x1                   	// #1
    609c:	94000ce1 	bl	9420 <_RNvCsiGVaDesi5rv_7___rustc14___rust_dealloc>
    60a0:	17fffff8 	b	6080 <_ZN4core4cell4once17OnceCell$LT$T$GT$8try_init17h6577ec651d954e20E+0x12f4>
    60a4:	f85b83a8 	ldur	x8, [x29, #-72]
    60a8:	b4000088 	cbz	x8, 60b8 <_ZN4core4cell4once17OnceCell$LT$T$GT$8try_init17h6577ec651d954e20E+0x132c>
    60ac:	aa1403e0 	mov	x0, x20
    60b0:	52800101 	mov	w1, #0x8                   	// #8
    60b4:	94000cdb 	bl	9420 <_RNvCsiGVaDesi5rv_7___rustc14___rust_dealloc>
    60b8:	aa1803f7 	mov	x23, x24
    60bc:	17ffff4d 	b	5df0 <_ZN4core4cell4once17OnceCell$LT$T$GT$8try_init17h6577ec651d954e20E+0x1064>
    60c0:	a97bd3a8 	ldp	x8, x20, [x29, #-72]
    60c4:	eb17011f 	cmp	x8, x23
    60c8:	540012e9 	b.ls	6324 <_ZN4core4cell4once17OnceCell$LT$T$GT$8try_init17h6577ec651d954e20E+0x1598>  // b.plast
    60cc:	b4001117 	cbz	x23, 62ec <_ZN4core4cell4once17OnceCell$LT$T$GT$8try_init17h6577ec651d954e20E+0x1560>
    60d0:	8b1706e9 	add	x9, x23, x23, lsl #1
    60d4:	8b080508 	add	x8, x8, x8, lsl #1
    60d8:	aa1403e0 	mov	x0, x20
    60dc:	52800102 	mov	w2, #0x8                   	// #8
    60e0:	d37df135 	lsl	x21, x9, #3
    60e4:	d37df101 	lsl	x1, x8, #3
    60e8:	aa1503e3 	mov	x3, x21
    60ec:	94000cce 	bl	9424 <_RNvCsiGVaDesi5rv_7___rustc14___rust_realloc>
    60f0:	aa0003f4 	mov	x20, x0
    60f4:	b5001180 	cbnz	x0, 6324 <_ZN4core4cell4once17OnceCell$LT$T$GT$8try_init17h6577ec651d954e20E+0x1598>
    60f8:	52800100 	mov	w0, #0x8                   	// #8
    60fc:	aa1503e1 	mov	x1, x21
    6100:	97fff7eb 	bl	40ac <_ZN5alloc7raw_vec12handle_error17hbfb8377505525b80E>
    6104:	14000102 	b	650c <_ZN4core4cell4once17OnceCell$LT$T$GT$8try_init17h6577ec651d954e20E+0x1780>
    6108:	794012ef 	ldrh	w15, [x23, #8]
    610c:	2a1f03f0 	mov	w16, wzr
    6110:	aa1f03ed 	mov	x13, xzr
    6114:	53087dee 	lsr	w14, w15, #8
    6118:	f9400ef2 	ldr	x18, [x23, #24]
    611c:	3dc00ee0 	ldr	q0, [x23, #48]
    6120:	f94022e0 	ldr	x0, [x23, #64]
    6124:	f100ba5f 	cmp	x18, #0x2e
    6128:	54ff7ae0 	b.eq	5084 <_ZN4core4cell4once17OnceCell$LT$T$GT$8try_init17h6577ec651d954e20E+0x2f8>  // b.none
    612c:	17fffbc3 	b	5038 <_ZN4core4cell4once17OnceCell$LT$T$GT$8try_init17h6577ec651d954e20E+0x2ac>
    6130:	f9402bf6 	ldr	x22, [sp, #80]
    6134:	2a1f03ea 	mov	w10, wzr
    6138:	2a1f03e8 	mov	w8, wzr
    613c:	2a1f03e9 	mov	w9, wzr
    6140:	528000dc 	mov	w28, #0x6                   	// #6
    6144:	17ffff23 	b	5dd0 <_ZN4core4cell4once17OnceCell$LT$T$GT$8try_init17h6577ec651d954e20E+0x1044>
    6148:	f9402ff6 	ldr	x22, [sp, #88]
    614c:	2a1f03ea 	mov	w10, wzr
    6150:	2a1f03e8 	mov	w8, wzr
    6154:	2a1f03e9 	mov	w9, wzr
    6158:	528000dc 	mov	w28, #0x6                   	// #6
    615c:	17ffff1d 	b	5dd0 <_ZN4core4cell4once17OnceCell$LT$T$GT$8try_init17h6577ec651d954e20E+0x1044>
    6160:	f94037f6 	ldr	x22, [sp, #104]
    6164:	2a1f03ea 	mov	w10, wzr
    6168:	2a1f03e8 	mov	w8, wzr
    616c:	2a1f03e9 	mov	w9, wzr
    6170:	f9010fed 	str	x13, [sp, #536]
    6174:	528000dc 	mov	w28, #0x6                   	// #6
    6178:	f90113eb 	str	x11, [sp, #544]
    617c:	17ffff15 	b	5dd0 <_ZN4core4cell4once17OnceCell$LT$T$GT$8try_init17h6577ec651d954e20E+0x1044>
    6180:	f94033f6 	ldr	x22, [sp, #96]
    6184:	2a1f03ea 	mov	w10, wzr
    6188:	2a1f03e8 	mov	w8, wzr
    618c:	2a1f03e9 	mov	w9, wzr
    6190:	528000dc 	mov	w28, #0x6                   	// #6
    6194:	17ffff0f 	b	5dd0 <_ZN4core4cell4once17OnceCell$LT$T$GT$8try_init17h6577ec651d954e20E+0x1044>
    6198:	2a1f03ea 	mov	w10, wzr
    619c:	2a1f03e8 	mov	w8, wzr
    61a0:	2a1f03e9 	mov	w9, wzr
    61a4:	528000dc 	mov	w28, #0x6                   	// #6
    61a8:	14000005 	b	61bc <_ZN4core4cell4once17OnceCell$LT$T$GT$8try_init17h6577ec651d954e20E+0x1430>
    61ac:	2a1f03ea 	mov	w10, wzr
    61b0:	2a1f03e8 	mov	w8, wzr
    61b4:	2a1f03e9 	mov	w9, wzr
    61b8:	5280027c 	mov	w28, #0x13                  	// #19
    61bc:	aa0f03f6 	mov	x22, x15
    61c0:	17ffff04 	b	5dd0 <_ZN4core4cell4once17OnceCell$LT$T$GT$8try_init17h6577ec651d954e20E+0x1044>
    61c4:	8b0c0294 	add	x20, x20, x12
    61c8:	2a1f03ea 	mov	w10, wzr
    61cc:	2a1f03e8 	mov	w8, wzr
    61d0:	2a1f03e9 	mov	w9, wzr
    61d4:	5280027c 	mov	w28, #0x13                  	// #19
    61d8:	aa1403f6 	mov	x22, x20
    61dc:	17fffefd 	b	5dd0 <_ZN4core4cell4once17OnceCell$LT$T$GT$8try_init17h6577ec651d954e20E+0x1044>
    61e0:	a94216e3 	ldp	x3, x5, [x23, #32]
    61e4:	d348fc62 	lsr	x2, x3, #8
    61e8:	d350fc64 	lsr	x4, x3, #16
    61ec:	92607c61 	and	x1, x3, #0xffffffff00000000
    61f0:	17fffba1 	b	5074 <_ZN4core4cell4once17OnceCell$LT$T$GT$8try_init17h6577ec651d954e20E+0x2e8>
    61f4:	910323e8 	add	x8, sp, #0xc8
    61f8:	92781d49 	and	x9, x10, #0xff00
    61fc:	5280068a 	mov	w10, #0x34                  	// #52
    6200:	f94023fc 	ldr	x28, [sp, #64]
    6204:	9270bd08 	and	x8, x8, #0xffffffffffff0000
    6208:	aa0a0129 	orr	x9, x9, x10
    620c:	aa090117 	orr	x23, x8, x9
    6210:	aa0c03f6 	mov	x22, x12
    6214:	17fffef7 	b	5df0 <_ZN4core4cell4once17OnceCell$LT$T$GT$8try_init17h6577ec651d954e20E+0x1064>
    6218:	f94006ef 	ldr	x15, [x23, #8]
    621c:	d348fdee 	lsr	x14, x15, #8
    6220:	d350fdf0 	lsr	x16, x15, #16
    6224:	92607ded 	and	x13, x15, #0xffffffff00000000
    6228:	f9400ef2 	ldr	x18, [x23, #24]
    622c:	3dc00ee0 	ldr	q0, [x23, #48]
    6230:	f94022e0 	ldr	x0, [x23, #64]
    6234:	f100ba5f 	cmp	x18, #0x2e
    6238:	54ff7260 	b.eq	5084 <_ZN4core4cell4once17OnceCell$LT$T$GT$8try_init17h6577ec651d954e20E+0x2f8>  // b.none
    623c:	17fffb7f 	b	5038 <_ZN4core4cell4once17OnceCell$LT$T$GT$8try_init17h6577ec651d954e20E+0x2ac>
    6240:	794042e3 	ldrh	w3, [x23, #32]
    6244:	2a1f03e4 	mov	w4, wzr
    6248:	aa1f03e1 	mov	x1, xzr
    624c:	53087c62 	lsr	w2, w3, #8
    6250:	17fffb89 	b	5074 <_ZN4core4cell4once17OnceCell$LT$T$GT$8try_init17h6577ec651d954e20E+0x2e8>
    6254:	b9400aef 	ldr	w15, [x23, #8]
    6258:	aa1f03ed 	mov	x13, xzr
    625c:	53087dee 	lsr	w14, w15, #8
    6260:	53107df0 	lsr	w16, w15, #16
    6264:	f9400ef2 	ldr	x18, [x23, #24]
    6268:	3dc00ee0 	ldr	q0, [x23, #48]
    626c:	f94022e0 	ldr	x0, [x23, #64]
    6270:	f100ba5f 	cmp	x18, #0x2e
    6274:	54ff7080 	b.eq	5084 <_ZN4core4cell4once17OnceCell$LT$T$GT$8try_init17h6577ec651d954e20E+0x2f8>  // b.none
    6278:	17fffb70 	b	5038 <_ZN4core4cell4once17OnceCell$LT$T$GT$8try_init17h6577ec651d954e20E+0x2ac>
    627c:	f94027f6 	ldr	x22, [sp, #72]
    6280:	2a1f03ea 	mov	w10, wzr
    6284:	2a1f03e8 	mov	w8, wzr
    6288:	2a1f03e9 	mov	w9, wzr
    628c:	528000dc 	mov	w28, #0x6                   	// #6
    6290:	17fffed0 	b	5dd0 <_ZN4core4cell4once17OnceCell$LT$T$GT$8try_init17h6577ec651d954e20E+0x1044>
    6294:	8b11018c 	add	x12, x12, x17
    6298:	f90113ff 	str	xzr, [sp, #544]
    629c:	f9010fec 	str	x12, [sp, #536]
    62a0:	1400001a 	b	6308 <_ZN4core4cell4once17OnceCell$LT$T$GT$8try_init17h6577ec651d954e20E+0x157c>
    62a4:	f94017f6 	ldr	x22, [sp, #40]
    62a8:	2a1f03ea 	mov	w10, wzr
    62ac:	2a1f03e8 	mov	w8, wzr
    62b0:	2a1f03e9 	mov	w9, wzr
    62b4:	528000dc 	mov	w28, #0x6                   	// #6
    62b8:	17fffec6 	b	5dd0 <_ZN4core4cell4once17OnceCell$LT$T$GT$8try_init17h6577ec651d954e20E+0x1044>
    62bc:	f94012e3 	ldr	x3, [x23, #32]
    62c0:	d348fc62 	lsr	x2, x3, #8
    62c4:	d350fc64 	lsr	x4, x3, #16
    62c8:	92607c61 	and	x1, x3, #0xffffffff00000000
    62cc:	17fffb6a 	b	5074 <_ZN4core4cell4once17OnceCell$LT$T$GT$8try_init17h6577ec651d954e20E+0x2e8>
    62d0:	b94022e3 	ldr	w3, [x23, #32]
    62d4:	aa1f03e1 	mov	x1, xzr
    62d8:	53087c62 	lsr	w2, w3, #8
    62dc:	53107c64 	lsr	w4, w3, #16
    62e0:	17fffb65 	b	5074 <_ZN4core4cell4once17OnceCell$LT$T$GT$8try_init17h6577ec651d954e20E+0x2e8>
    62e4:	a97bd3a8 	ldp	x8, x20, [x29, #-72]
    62e8:	b40001c8 	cbz	x8, 6320 <_ZN4core4cell4once17OnceCell$LT$T$GT$8try_init17h6577ec651d954e20E+0x1594>
    62ec:	aa1403e0 	mov	x0, x20
    62f0:	52800101 	mov	w1, #0x8                   	// #8
    62f4:	94000c4b 	bl	9420 <_RNvCsiGVaDesi5rv_7___rustc14___rust_dealloc>
    62f8:	aa1f03f7 	mov	x23, xzr
    62fc:	52800114 	mov	w20, #0x8                   	// #8
    6300:	14000009 	b	6324 <_ZN4core4cell4once17OnceCell$LT$T$GT$8try_init17h6577ec651d954e20E+0x1598>
    6304:	8b0d018c 	add	x12, x12, x13
    6308:	2a1f03ea 	mov	w10, wzr
    630c:	2a1f03e8 	mov	w8, wzr
    6310:	2a1f03e9 	mov	w9, wzr
    6314:	5280027c 	mov	w28, #0x13                  	// #19
    6318:	aa0c03f6 	mov	x22, x12
    631c:	17fffead 	b	5dd0 <_ZN4core4cell4once17OnceCell$LT$T$GT$8try_init17h6577ec651d954e20E+0x1044>
    6320:	aa1f03f7 	mov	x23, xzr
    6324:	a94a4ff6 	ldp	x22, x19, [sp, #160]
    6328:	f9404fe8 	ldr	x8, [sp, #152]
    632c:	eb13011f 	cmp	x8, x19
    6330:	54000249 	b.ls	6378 <_ZN4core4cell4once17OnceCell$LT$T$GT$8try_init17h6577ec651d954e20E+0x15ec>  // b.plast
    6334:	b40001b3 	cbz	x19, 6368 <_ZN4core4cell4once17OnceCell$LT$T$GT$8try_init17h6577ec651d954e20E+0x15dc>
    6338:	d37bea75 	lsl	x21, x19, #5
    633c:	d37be901 	lsl	x1, x8, #5
    6340:	aa1603e0 	mov	x0, x22
    6344:	52800102 	mov	w2, #0x8                   	// #8
    6348:	aa1503e3 	mov	x3, x21
    634c:	94000c36 	bl	9424 <_RNvCsiGVaDesi5rv_7___rustc14___rust_realloc>
    6350:	aa0003f6 	mov	x22, x0
    6354:	b5000120 	cbnz	x0, 6378 <_ZN4core4cell4once17OnceCell$LT$T$GT$8try_init17h6577ec651d954e20E+0x15ec>
    6358:	52800100 	mov	w0, #0x8                   	// #8
    635c:	aa1503e1 	mov	x1, x21
    6360:	97fff753 	bl	40ac <_ZN5alloc7raw_vec12handle_error17hbfb8377505525b80E>
    6364:	1400006a 	b	650c <_ZN4core4cell4once17OnceCell$LT$T$GT$8try_init17h6577ec651d954e20E+0x1780>
    6368:	aa1603e0 	mov	x0, x22
    636c:	52800101 	mov	w1, #0x8                   	// #8
    6370:	94000c2c 	bl	9420 <_RNvCsiGVaDesi5rv_7___rustc14___rust_dealloc>
    6374:	52800116 	mov	w22, #0x8                   	// #8
    6378:	f94093e8 	ldr	x8, [sp, #288]
    637c:	b4000088 	cbz	x8, 638c <_ZN4core4cell4once17OnceCell$LT$T$GT$8try_init17h6577ec651d954e20E+0x1600>
    6380:	f94097e0 	ldr	x0, [sp, #296]
    6384:	52800041 	mov	w1, #0x2                   	// #2
    6388:	94000c26 	bl	9420 <_RNvCsiGVaDesi5rv_7___rustc14___rust_dealloc>
    638c:	f9409fe8 	ldr	x8, [sp, #312]
    6390:	b4000088 	cbz	x8, 63a0 <_ZN4core4cell4once17OnceCell$LT$T$GT$8try_init17h6577ec651d954e20E+0x1614>
    6394:	f940a3e0 	ldr	x0, [sp, #320]
    6398:	52800101 	mov	w1, #0x8                   	// #8
    639c:	94000c21 	bl	9420 <_RNvCsiGVaDesi5rv_7___rustc14___rust_dealloc>
    63a0:	f940abe8 	ldr	x8, [sp, #336]
    63a4:	b4000088 	cbz	x8, 63b4 <_ZN4core4cell4once17OnceCell$LT$T$GT$8try_init17h6577ec651d954e20E+0x1628>
    63a8:	f940afe0 	ldr	x0, [sp, #344]
    63ac:	52800041 	mov	w1, #0x2                   	// #2
    63b0:	94000c1c 	bl	9420 <_RNvCsiGVaDesi5rv_7___rustc14___rust_dealloc>
    63b4:	f940b7e8 	ldr	x8, [sp, #360]
    63b8:	b4000088 	cbz	x8, 63c8 <_ZN4core4cell4once17OnceCell$LT$T$GT$8try_init17h6577ec651d954e20E+0x163c>
    63bc:	f940bbe0 	ldr	x0, [sp, #368]
    63c0:	52800101 	mov	w1, #0x8                   	// #8
    63c4:	94000c17 	bl	9420 <_RNvCsiGVaDesi5rv_7___rustc14___rust_dealloc>
    63c8:	f9405be8 	ldr	x8, [sp, #176]
    63cc:	b4ffd6a8 	cbz	x8, 5ea0 <_ZN4core4cell4once17OnceCell$LT$T$GT$8try_init17h6577ec651d954e20E+0x1114>
    63d0:	f9405fe0 	ldr	x0, [sp, #184]
    63d4:	52800101 	mov	w1, #0x8                   	// #8
    63d8:	94000c12 	bl	9420 <_RNvCsiGVaDesi5rv_7___rustc14___rust_dealloc>
    63dc:	17fffeb1 	b	5ea0 <_ZN4core4cell4once17OnceCell$LT$T$GT$8try_init17h6577ec651d954e20E+0x1114>
    63e0:	d100c3aa 	sub	x10, x29, #0x30
    63e4:	785d63a9 	ldurh	w9, [x29, #-42]
    63e8:	f85d83b6 	ldur	x22, [x29, #-40]
    63ec:	b840214b 	ldur	w11, [x10, #2]
    63f0:	385d13aa 	ldurb	w10, [x29, #-47]
    63f4:	aa0803fc 	mov	x28, x8
    63f8:	aa098169 	orr	x9, x11, x9, lsl #32
    63fc:	d350fd29 	lsr	x9, x9, #16
    6400:	2a0903e8 	mov	w8, w9
    6404:	2a0b03e9 	mov	w9, w11
    6408:	17fffe72 	b	5dd0 <_ZN4core4cell4once17OnceCell$LT$T$GT$8try_init17h6577ec651d954e20E+0x1044>
    640c:	5280027c 	mov	w28, #0x13                  	// #19
    6410:	2a0b03ea 	mov	w10, w11
    6414:	aa1003f6 	mov	x22, x16
    6418:	17fffe6e 	b	5dd0 <_ZN4core4cell4once17OnceCell$LT$T$GT$8try_init17h6577ec651d954e20E+0x1044>
    641c:	d100c3a9 	sub	x9, x29, #0x30
    6420:	781d03bf 	sturh	wzr, [x29, #-48]
    6424:	2a1f03ea 	mov	w10, wzr
    6428:	b800213f 	stur	wzr, [x9, #2]
    642c:	2a1f03e8 	mov	w8, wzr
    6430:	78401129 	ldurh	w9, [x9, #1]
    6434:	17fffe60 	b	5db4 <_ZN4core4cell4once17OnceCell$LT$T$GT$8try_init17h6577ec651d954e20E+0x1028>
    6438:	2a1f03ea 	mov	w10, wzr
    643c:	2a1f03e8 	mov	w8, wzr
    6440:	2a1f03e9 	mov	w9, wzr
    6444:	5280027c 	mov	w28, #0x13                  	// #19
    6448:	aa1003f6 	mov	x22, x16
    644c:	17fffe61 	b	5dd0 <_ZN4core4cell4once17OnceCell$LT$T$GT$8try_init17h6577ec651d954e20E+0x1044>
    6450:	8b09014b 	add	x11, x10, x9
    6454:	2a1f03ea 	mov	w10, wzr
    6458:	2a1f03e8 	mov	w8, wzr
    645c:	2a1f03e9 	mov	w9, wzr
    6460:	5280027c 	mov	w28, #0x13                  	// #19
    6464:	aa0b03f6 	mov	x22, x11
    6468:	17fffe5a 	b	5dd0 <_ZN4core4cell4once17OnceCell$LT$T$GT$8try_init17h6577ec651d954e20E+0x1044>
    646c:	8b09016c 	add	x12, x11, x9
    6470:	17ffffa6 	b	6308 <_ZN4core4cell4once17OnceCell$LT$T$GT$8try_init17h6577ec651d954e20E+0x157c>
    6474:	f94053e0 	ldr	x0, [sp, #160]
    6478:	f100543f 	cmp	x1, #0x15
    647c:	540003e2 	b.cs	64f8 <_ZN4core4cell4once17OnceCell$LT$T$GT$8try_init17h6577ec651d954e20E+0x176c>  // b.hs, b.nlast
    6480:	940081fd 	bl	26c74 <_ZN4core5slice4sort6shared9smallsort25insertion_sort_shift_left17h36ed39fa620afffcE>
    6484:	17fffe9b 	b	5ef0 <_ZN4core4cell4once17OnceCell$LT$T$GT$8try_init17h6577ec651d954e20E+0x1164>
    6488:	2a0b03ea 	mov	w10, w11
    648c:	17fffe4a 	b	5db4 <_ZN4core4cell4once17OnceCell$LT$T$GT$8try_init17h6577ec651d954e20E+0x1028>
    6490:	91002388 	add	x8, x28, #0x8
    6494:	910323e0 	add	x0, sp, #0xc8
    6498:	a90ddbf7 	stp	x23, x22, [sp, #216]
    649c:	a90cd3e8 	stp	x8, x20, [sp, #200]
    64a0:	f90077f3 	str	x19, [sp, #232]
    64a4:	94008358 	bl	27204 <_ZN4core3ptr284drop_in_place$LT$core..result..Result$LT$$RF$core..result..Result$LT$addr2line..line..Lines$C$gimli..read..Error$GT$$C$$LP$$RF$core..result..Result$LT$addr2line..line..Lines$C$gimli..read..Error$GT$$C$core..result..Result$LT$addr2line..line..Lines$C$gimli..read..Error$GT$$RP$$GT$$GT$17he050df588e8be16fE>
    64a8:	d00002a8 	adrp	x8, 5c000 <__do_global_dtors_aux_fini_array_entry+0x14e8>
    64ac:	91126108 	add	x8, x8, #0x498
    64b0:	52800029 	mov	w9, #0x1                   	// #1
    64b4:	a90ca7e8 	stp	x8, x9, [sp, #200]
    64b8:	52800108 	mov	w8, #0x8                   	// #8
    64bc:	d00002a1 	adrp	x1, 5c000 <__do_global_dtors_aux_fini_array_entry+0x14e8>
    64c0:	9112a021 	add	x1, x1, #0x4a8
    64c4:	910323e0 	add	x0, sp, #0xc8
    64c8:	a90e7fff 	stp	xzr, xzr, [sp, #224]
    64cc:	f9006fe8 	str	x8, [sp, #216]
    64d0:	97fff7a8 	bl	4370 <_ZN4core9panicking9panic_fmt17ha1b8843c59fc39d4E>
    64d4:	aa1503e0 	mov	x0, x21
    64d8:	14000002 	b	64e0 <_ZN4core4cell4once17OnceCell$LT$T$GT$8try_init17h6577ec651d954e20E+0x1754>
    64dc:	aa1803e0 	mov	x0, x24
    64e0:	97fff883 	bl	46ec <_ZN4core9panicking11panic_const23panic_const_rem_by_zero17hca3a8d5d32897cb1E>
    64e4:	1400000a 	b	650c <_ZN4core4cell4once17OnceCell$LT$T$GT$8try_init17h6577ec651d954e20E+0x1780>
    64e8:	d00002a0 	adrp	x0, 5c000 <__do_global_dtors_aux_fini_array_entry+0x14e8>
    64ec:	91212000 	add	x0, x0, #0x848
    64f0:	97fff7b8 	bl	43d0 <_ZN4core9panicking11panic_const23panic_const_div_by_zero17h077f55170e23fb59E>
    64f4:	14000006 	b	650c <_ZN4core4cell4once17OnceCell$LT$T$GT$8try_init17h6577ec651d954e20E+0x1780>
    64f8:	94008199 	bl	26b5c <_ZN4core5slice4sort6stable14driftsort_main17h5811ce59f600df79E>
    64fc:	17fffe7d 	b	5ef0 <_ZN4core4cell4once17OnceCell$LT$T$GT$8try_init17h6577ec651d954e20E+0x1164>
    6500:	52800100 	mov	w0, #0x8                   	// #8
    6504:	aa1b03e1 	mov	x1, x27
    6508:	97fff6e9 	bl	40ac <_ZN5alloc7raw_vec12handle_error17hbfb8377505525b80E>
    650c:	d4200020 	brk	#0x1
    6510:	14000029 	b	65b4 <_ZN4core4cell4once17OnceCell$LT$T$GT$8try_init17h6577ec651d954e20E+0x1828>
    6514:	aa0003f3 	mov	x19, x0
    6518:	aa1503e0 	mov	x0, x21
    651c:	14000003 	b	6528 <_ZN4core4cell4once17OnceCell$LT$T$GT$8try_init17h6577ec651d954e20E+0x179c>
    6520:	aa0003f3 	mov	x19, x0
    6524:	aa1903e0 	mov	x0, x25
    6528:	52800101 	mov	w1, #0x8                   	// #8
    652c:	94000bbd 	bl	9420 <_RNvCsiGVaDesi5rv_7___rustc14___rust_dealloc>
    6530:	14000022 	b	65b8 <_ZN4core4cell4once17OnceCell$LT$T$GT$8try_init17h6577ec651d954e20E+0x182c>
    6534:	14000020 	b	65b4 <_ZN4core4cell4once17OnceCell$LT$T$GT$8try_init17h6577ec651d954e20E+0x1828>
    6538:	1400001b 	b	65a4 <_ZN4core4cell4once17OnceCell$LT$T$GT$8try_init17h6577ec651d954e20E+0x1818>
    653c:	aa0003f3 	mov	x19, x0
    6540:	910263e0 	add	x0, sp, #0x98
    6544:	9400814f 	bl	26a80 <_ZN4core3ptr73drop_in_place$LT$alloc..vec..Vec$LT$addr2line..line..LineSequence$GT$$GT$17hd647c65691c6d1c7E>
    6548:	aa1403e0 	mov	x0, x20
    654c:	aa1703e1 	mov	x1, x23
    6550:	9400816a 	bl	26af8 <_ZN4core3ptr77drop_in_place$LT$alloc..boxed..Box$LT$$u5b$alloc..string..String$u5d$$GT$$GT$17h752b40c2aade86d8E>
    6554:	910323e0 	add	x0, sp, #0xc8
    6558:	9400812d 	bl	26a0c <_ZN4core3ptr275drop_in_place$LT$gimli..read..line..LineRows$LT$gimli..read..endian_slice..EndianSlice$LT$gimli..endianity..LittleEndian$GT$$C$gimli..read..line..IncompleteLineProgram$LT$gimli..read..endian_slice..EndianSlice$LT$gimli..endianity..LittleEndian$GT$$C$usize$GT$$C$usize$GT$$GT$17hd17793f0fba3e097E>
    655c:	f9405be8 	ldr	x8, [sp, #176]
    6560:	b40005e8 	cbz	x8, 661c <_ZN4core4cell4once17OnceCell$LT$T$GT$8try_init17h6577ec651d954e20E+0x1890>
    6564:	f9405fe0 	ldr	x0, [sp, #184]
    6568:	52800101 	mov	w1, #0x8                   	// #8
    656c:	94000bad 	bl	9420 <_RNvCsiGVaDesi5rv_7___rustc14___rust_dealloc>
    6570:	aa1303e0 	mov	x0, x19
    6574:	97fff6af 	bl	4030 <_Unwind_Resume@plt>
    6578:	aa0003f3 	mov	x19, x0
    657c:	b50000d7 	cbnz	x23, 6594 <_ZN4core4cell4once17OnceCell$LT$T$GT$8try_init17h6577ec651d954e20E+0x1808>
    6580:	1400000a 	b	65a8 <_ZN4core4cell4once17OnceCell$LT$T$GT$8try_init17h6577ec651d954e20E+0x181c>
    6584:	14000008 	b	65a4 <_ZN4core4cell4once17OnceCell$LT$T$GT$8try_init17h6577ec651d954e20E+0x1818>
    6588:	14000007 	b	65a4 <_ZN4core4cell4once17OnceCell$LT$T$GT$8try_init17h6577ec651d954e20E+0x1818>
    658c:	aa0003f3 	mov	x19, x0
    6590:	b40000db 	cbz	x27, 65a8 <_ZN4core4cell4once17OnceCell$LT$T$GT$8try_init17h6577ec651d954e20E+0x181c>
    6594:	aa1803e0 	mov	x0, x24
    6598:	52800021 	mov	w1, #0x1                   	// #1
    659c:	94000ba1 	bl	9420 <_RNvCsiGVaDesi5rv_7___rustc14___rust_dealloc>
    65a0:	14000002 	b	65a8 <_ZN4core4cell4once17OnceCell$LT$T$GT$8try_init17h6577ec651d954e20E+0x181c>
    65a4:	aa0003f3 	mov	x19, x0
    65a8:	d10123a0 	sub	x0, x29, #0x48
    65ac:	940081db 	bl	26d18 <_ZN4core3ptr65drop_in_place$LT$alloc..vec..Vec$LT$alloc..string..String$GT$$GT$17hb02d5565998d4b94E>
    65b0:	14000002 	b	65b8 <_ZN4core4cell4once17OnceCell$LT$T$GT$8try_init17h6577ec651d954e20E+0x182c>
    65b4:	aa0003f3 	mov	x19, x0
    65b8:	910323e0 	add	x0, sp, #0xc8
    65bc:	94008114 	bl	26a0c <_ZN4core3ptr275drop_in_place$LT$gimli..read..line..LineRows$LT$gimli..read..endian_slice..EndianSlice$LT$gimli..endianity..LittleEndian$GT$$C$gimli..read..line..IncompleteLineProgram$LT$gimli..read..endian_slice..EndianSlice$LT$gimli..endianity..LittleEndian$GT$$C$usize$GT$$C$usize$GT$$GT$17hd17793f0fba3e097E>
    65c0:	f9405be8 	ldr	x8, [sp, #176]
    65c4:	b4000088 	cbz	x8, 65d4 <_ZN4core4cell4once17OnceCell$LT$T$GT$8try_init17h6577ec651d954e20E+0x1848>
    65c8:	f9405fe0 	ldr	x0, [sp, #184]
    65cc:	52800101 	mov	w1, #0x8                   	// #8
    65d0:	94000b94 	bl	9420 <_RNvCsiGVaDesi5rv_7___rustc14___rust_dealloc>
    65d4:	910263e0 	add	x0, sp, #0x98
    65d8:	9400812a 	bl	26a80 <_ZN4core3ptr73drop_in_place$LT$alloc..vec..Vec$LT$addr2line..line..LineSequence$GT$$GT$17hd647c65691c6d1c7E>
    65dc:	aa1303e0 	mov	x0, x19
    65e0:	97fff694 	bl	4030 <_Unwind_Resume@plt>
    65e4:	aa0003f3 	mov	x19, x0
    65e8:	a94223e0 	ldp	x0, x8, [sp, #32]
    65ec:	f94027f4 	ldr	x20, [sp, #72]
    65f0:	b40000c8 	cbz	x8, 6608 <_ZN4core4cell4once17OnceCell$LT$T$GT$8try_init17h6577ec651d954e20E+0x187c>
    65f4:	52800041 	mov	w1, #0x2                   	// #2
    65f8:	94000b8a 	bl	9420 <_RNvCsiGVaDesi5rv_7___rustc14___rust_dealloc>
    65fc:	14000003 	b	6608 <_ZN4core4cell4once17OnceCell$LT$T$GT$8try_init17h6577ec651d954e20E+0x187c>
    6600:	f94027f4 	ldr	x20, [sp, #72]
    6604:	aa0003f3 	mov	x19, x0
    6608:	b4000094 	cbz	x20, 6618 <_ZN4core4cell4once17OnceCell$LT$T$GT$8try_init17h6577ec651d954e20E+0x188c>
    660c:	aa1803e0 	mov	x0, x24
    6610:	52800101 	mov	w1, #0x8                   	// #8
    6614:	94000b83 	bl	9420 <_RNvCsiGVaDesi5rv_7___rustc14___rust_dealloc>
    6618:	b50000b5 	cbnz	x21, 662c <_ZN4core4cell4once17OnceCell$LT$T$GT$8try_init17h6577ec651d954e20E+0x18a0>
    661c:	aa1303e0 	mov	x0, x19
    6620:	97fff684 	bl	4030 <_Unwind_Resume@plt>
    6624:	aa0003f3 	mov	x19, x0
    6628:	b4ffffb5 	cbz	x21, 661c <_ZN4core4cell4once17OnceCell$LT$T$GT$8try_init17h6577ec651d954e20E+0x1890>
    662c:	aa1603e0 	mov	x0, x22
    6630:	52800041 	mov	w1, #0x2                   	// #2
    6634:	94000b7b 	bl	9420 <_RNvCsiGVaDesi5rv_7___rustc14___rust_dealloc>
    6638:	aa1303e0 	mov	x0, x19
    663c:	97fff67d 	bl	4030 <_Unwind_Resume@plt>

0000000000006640 <_ZN5alloc7raw_vec19RawVec$LT$T$C$A$GT$8grow_one17h8aa5fe4f2d21d34fE>:
    6640:	d10103ff 	sub	sp, sp, #0x40
    6644:	a9027bfd 	stp	x29, x30, [sp, #32]
    6648:	a9034ff4 	stp	x20, x19, [sp, #48]
    664c:	910083fd 	add	x29, sp, #0x20
    6650:	a9400801 	ldp	x1, x2, [x0]
    6654:	52800088 	mov	w8, #0x4                   	// #4
    6658:	aa0003f3 	mov	x19, x0
    665c:	910023e0 	add	x0, sp, #0x8
    6660:	52800104 	mov	w4, #0x8                   	// #8
    6664:	52800305 	mov	w5, #0x18                  	// #24
    6668:	d37ff829 	lsl	x9, x1, #1
    666c:	f100113f 	cmp	x9, #0x4
    6670:	9a888134 	csel	x20, x9, x8, hi  // hi = pmore
    6674:	aa1403e3 	mov	x3, x20
    6678:	9400000c 	bl	66a8 <_ZN5alloc7raw_vec20RawVecInner$LT$A$GT$11finish_grow17ha0ca981926be2dffE>
    667c:	b9400be8 	ldr	w8, [sp, #8]
    6680:	7100051f 	cmp	w8, #0x1
    6684:	540000e0 	b.eq	66a0 <_ZN5alloc7raw_vec19RawVec$LT$T$C$A$GT$8grow_one17h8aa5fe4f2d21d34fE+0x60>  // b.none
    6688:	f9400be8 	ldr	x8, [sp, #16]
    668c:	a9002274 	stp	x20, x8, [x19]
    6690:	a9434ff4 	ldp	x20, x19, [sp, #48]
    6694:	a9427bfd 	ldp	x29, x30, [sp, #32]
    6698:	910103ff 	add	sp, sp, #0x40
    669c:	d65f03c0 	ret
    66a0:	a94107e0 	ldp	x0, x1, [sp, #16]
    66a4:	97fff682 	bl	40ac <_ZN5alloc7raw_vec12handle_error17hbfb8377505525b80E>

00000000000066a8 <_ZN5alloc7raw_vec20RawVecInner$LT$A$GT$11finish_grow17ha0ca981926be2dffE>:
    66a8:	a9bd7bfd 	stp	x29, x30, [sp, #-48]!
    66ac:	f9000bf5 	str	x21, [sp, #16]
    66b0:	a9024ff4 	stp	x20, x19, [sp, #32]
    66b4:	910003fd 	mov	x29, sp
    66b8:	8b050088 	add	x8, x4, x5
    66bc:	cb0403ea 	neg	x10, x4
    66c0:	aa0003f3 	mov	x19, x0
    66c4:	d1000508 	sub	x8, x8, #0x1
    66c8:	aa1f03e9 	mov	x9, xzr
    66cc:	8a0a010b 	and	x11, x8, x10
    66d0:	5280010a 	mov	w10, #0x8                   	// #8
    66d4:	9bc37d68 	umulh	x8, x11, x3
    66d8:	eb0803ff 	cmp	xzr, x8
    66dc:	52800028 	mov	w8, #0x1                   	// #1
    66e0:	540003a1 	b.ne	6754 <_ZN5alloc7raw_vec20RawVecInner$LT$A$GT$11finish_grow17ha0ca981926be2dffE+0xac>  // b.any
    66e4:	9b037d74 	mul	x20, x11, x3
    66e8:	d2f0000b 	mov	x11, #0x8000000000000000    	// #-9223372036854775808
    66ec:	cb04016b 	sub	x11, x11, x4
    66f0:	eb0b029f 	cmp	x20, x11
    66f4:	54000308 	b.hi	6754 <_ZN5alloc7raw_vec20RawVecInner$LT$A$GT$11finish_grow17ha0ca981926be2dffE+0xac>  // b.pmore
    66f8:	b4000121 	cbz	x1, 671c <_ZN5alloc7raw_vec20RawVecInner$LT$A$GT$11finish_grow17ha0ca981926be2dffE+0x74>
    66fc:	9b017ca1 	mul	x1, x5, x1
    6700:	aa0203e0 	mov	x0, x2
    6704:	aa0403e2 	mov	x2, x4
    6708:	aa1403e3 	mov	x3, x20
    670c:	aa0403f5 	mov	x21, x4
    6710:	94000b45 	bl	9424 <_RNvCsiGVaDesi5rv_7___rustc14___rust_realloc>
    6714:	b5000180 	cbnz	x0, 6744 <_ZN5alloc7raw_vec20RawVecInner$LT$A$GT$11finish_grow17ha0ca981926be2dffE+0x9c>
    6718:	14000007 	b	6734 <_ZN5alloc7raw_vec20RawVecInner$LT$A$GT$11finish_grow17ha0ca981926be2dffE+0x8c>
    671c:	b4000134 	cbz	x20, 6740 <_ZN5alloc7raw_vec20RawVecInner$LT$A$GT$11finish_grow17ha0ca981926be2dffE+0x98>
    6720:	aa1403e0 	mov	x0, x20
    6724:	aa0403e1 	mov	x1, x4
    6728:	aa0403f5 	mov	x21, x4
    672c:	94000b2b 	bl	93d8 <_RNvCsiGVaDesi5rv_7___rustc12___rust_alloc>
    6730:	b50000a0 	cbnz	x0, 6744 <_ZN5alloc7raw_vec20RawVecInner$LT$A$GT$11finish_grow17ha0ca981926be2dffE+0x9c>
    6734:	52800028 	mov	w8, #0x1                   	// #1
    6738:	f9000675 	str	x21, [x19, #8]
    673c:	14000004 	b	674c <_ZN5alloc7raw_vec20RawVecInner$LT$A$GT$11finish_grow17ha0ca981926be2dffE+0xa4>
    6740:	aa0403e0 	mov	x0, x4
    6744:	aa1f03e8 	mov	x8, xzr
    6748:	f9000660 	str	x0, [x19, #8]
    674c:	5280020a 	mov	w10, #0x10                  	// #16
    6750:	aa1403e9 	mov	x9, x20
    6754:	f82a6a69 	str	x9, [x19, x10]
    6758:	f9000268 	str	x8, [x19]
    675c:	a9424ff4 	ldp	x20, x19, [sp, #32]
    6760:	f9400bf5 	ldr	x21, [sp, #16]
    6764:	a8c37bfd 	ldp	x29, x30, [sp], #48
    6768:	d65f03c0 	ret

000000000000676c <_ZN4core4cell4once17OnceCell$LT$T$GT$8try_init17h5f04ae72a6b83f12E>:
    676c:	a9ba7bfd 	stp	x29, x30, [sp, #-96]!
    6770:	a9016ffc 	stp	x28, x27, [sp, #16]
    6774:	a90267fa 	stp	x26, x25, [sp, #32]
    6778:	a9035ff8 	stp	x24, x23, [sp, #48]
    677c:	a90457f6 	stp	x22, x21, [sp, #64]
    6780:	a9054ff4 	stp	x20, x19, [sp, #80]
    6784:	910003fd 	mov	x29, sp
    6788:	d106c3ff 	sub	sp, sp, #0x1b0
    678c:	52800108 	mov	w8, #0x8                   	// #8
    6790:	f940b84a 	ldr	x10, [x2, #368]
    6794:	aa0003f3 	mov	x19, x0
    6798:	a90da3ff 	stp	xzr, x8, [sp, #216]
    679c:	a93423bf 	stp	xzr, x8, [x29, #-192]
    67a0:	a942a448 	ldp	x8, x9, [x2, #40]
    67a4:	f90077ff 	str	xzr, [sp, #232]
    67a8:	a93523bf 	stp	xzr, x8, [x29, #-176]
    67ac:	91004148 	add	x8, x10, #0x10
    67b0:	a9360ba9 	stp	x9, x2, [x29, #-160]
    67b4:	a9377fa8 	stp	x8, xzr, [x29, #-144]
    67b8:	b4004329 	cbz	x9, 701c <_ZN4core4cell4once17OnceCell$LT$T$GT$8try_init17h5f04ae72a6b83f12E+0x8b0>
    67bc:	a94e2837 	ldp	x23, x10, [x1, #224]
    67c0:	5280011c 	mov	w28, #0x8                   	// #8
    67c4:	f940dc59 	ldr	x25, [x2, #440]
    67c8:	b9404858 	ldr	w24, [x2, #72]
    67cc:	aa1f03fa 	mov	x26, xzr
    67d0:	39444028 	ldrb	w8, [x1, #272]
    67d4:	a9416c2b 	ldp	x11, x27, [x1, #16]
    67d8:	f9005bea 	str	x10, [sp, #176]
    67dc:	cb19014a 	sub	x10, x10, x25
    67e0:	7141431f 	cmp	w24, #0x50, lsl #12
    67e4:	f90053ea 	str	x10, [sp, #160]
    67e8:	8b1902ea 	add	x10, x23, x25
    67ec:	f940d454 	ldr	x20, [x2, #424]
    67f0:	f9004bea 	str	x10, [sp, #144]
    67f4:	1a9f27ea 	cset	w10, cc  // cc = lo, ul, last
    67f8:	d3483f0c 	ubfx	x12, x24, #8, #8
    67fc:	6a0a011f 	tst	w8, w10
    6800:	12181f08 	and	w8, w24, #0xff00
    6804:	53107f0a 	lsr	w10, w24, #16
    6808:	b9008fe8 	str	w8, [sp, #140]
    680c:	9a9f1328 	csel	x8, x25, xzr, ne  // ne = any
    6810:	aa1f03f6 	mov	x22, xzr
    6814:	f90057e8 	str	x8, [sp, #168]
    6818:	cb140368 	sub	x8, x27, x20
    681c:	7100115f 	cmp	w10, #0x4
    6820:	f90067e8 	str	x8, [sp, #200]
    6824:	8b140168 	add	x8, x11, x20
    6828:	5280008f 	mov	w15, #0x4                   	// #4
    682c:	f90063e8 	str	x8, [sp, #192]
    6830:	92401f08 	and	x8, x24, #0xff
    6834:	52800190 	mov	w16, #0xc                   	// #12
    6838:	f9005fe8 	str	x8, [sp, #184]
    683c:	91034028 	add	x8, x1, #0xd0
    6840:	a907afe8 	stp	x8, x11, [sp, #120]
    6844:	1a9f97e8 	cset	w8, hi  // hi = pmore
    6848:	290c2be8 	stp	w8, w10, [sp, #96]
    684c:	52800208 	mov	w8, #0x10                  	// #16
    6850:	9a9f810a 	csel	x10, x8, xzr, hi  // hi = pmore
    6854:	f9004fec 	str	x12, [sp, #152]
    6858:	52800308 	mov	w8, #0x18                  	// #24
    685c:	9a9c8108 	csel	x8, x8, x28, hi  // hi = pmore
    6860:	a906abe8 	stp	x8, x10, [sp, #104]
    6864:	f940cc48 	ldr	x8, [x2, #408]
    6868:	f9002fe8 	str	x8, [sp, #88]
    686c:	f85683a8 	ldur	x8, [x29, #-152]
    6870:	f85583ab 	ldur	x11, [x29, #-168]
    6874:	aa1f03f5 	mov	x21, xzr
    6878:	2a1f03ea 	mov	w10, wzr
    687c:	3941250c 	ldrb	w12, [x8, #73]
    6880:	f940150e 	ldr	x14, [x8, #40]
    6884:	7100219f 	cmp	w12, #0x8
    6888:	a943350c 	ldp	x12, x13, [x8, #48]
    688c:	9a8f020f 	csel	x15, x16, x15, eq  // eq = none
    6890:	8b0b01ad 	add	x13, x13, x11
    6894:	8b0e018c 	add	x12, x12, x14
    6898:	8b0f01ad 	add	x13, x13, x15
    689c:	cb0c01ac 	sub	x12, x13, x12
    68a0:	9100056d 	add	x13, x11, #0x1
    68a4:	f9006bec 	str	x12, [sp, #208]
    68a8:	d100052c 	sub	x12, x9, #0x1
    68ac:	385ff1ae 	ldurb	w14, [x13, #-1]
    68b0:	7100fd5f 	cmp	w10, #0x3f
    68b4:	54000061 	b.ne	68c0 <_ZN4core4cell4once17OnceCell$LT$T$GT$8try_init17h5f04ae72a6b83f12E+0x154>  // b.any
    68b8:	710005df 	cmp	w14, #0x1
    68bc:	54003488 	b.hi	6f4c <_ZN4core4cell4once17OnceCell$LT$T$GT$8try_init17h5f04ae72a6b83f12E+0x7e0>  // b.pmore
    68c0:	924019cf 	and	x15, x14, #0x7f
    68c4:	9aca21ef 	lsl	x15, x15, x10
    68c8:	aa1501f5 	orr	x21, x15, x21
    68cc:	363800ee 	tbz	w14, #7, 68e8 <_ZN4core4cell4once17OnceCell$LT$T$GT$8try_init17h5f04ae72a6b83f12E+0x17c>
    68d0:	d100058c 	sub	x12, x12, #0x1
    68d4:	910005ad 	add	x13, x13, #0x1
    68d8:	11001d4a 	add	w10, w10, #0x7
    68dc:	b100059f 	cmn	x12, #0x1
    68e0:	54fffe61 	b.ne	68ac <_ZN4core4cell4once17OnceCell$LT$T$GT$8try_init17h5f04ae72a6b83f12E+0x140>  // b.any
    68e4:	1400019e 	b	6f5c <_ZN4core4cell4once17OnceCell$LT$T$GT$8try_init17h5f04ae72a6b83f12E+0x7f0>
    68e8:	a935b3ad 	stp	x13, x12, [x29, #-168]
    68ec:	b4000315 	cbz	x21, 694c <_ZN4core4cell4once17OnceCell$LT$T$GT$8try_init17h5f04ae72a6b83f12E+0x1e0>
    68f0:	f85703aa 	ldur	x10, [x29, #-144]
    68f4:	d10006a9 	sub	x9, x21, #0x1
    68f8:	f940094b 	ldr	x11, [x10, #16]
    68fc:	eb0b013f 	cmp	x9, x11
    6900:	540002e2 	b.cs	695c <_ZN4core4cell4once17OnceCell$LT$T$GT$8try_init17h5f04ae72a6b83f12E+0x1f0>  // b.hs, b.nlast
    6904:	52800e0b 	mov	w11, #0x70                  	// #112
    6908:	f940054a 	ldr	x10, [x10, #8]
    690c:	9b0b2929 	madd	x9, x9, x11, x10
    6910:	3941a92a 	ldrb	w10, [x9, #106]
    6914:	7100055f 	cmp	w10, #0x1
    6918:	54000081 	b.ne	6928 <_ZN4core4cell4once17OnceCell$LT$T$GT$8try_init17h5f04ae72a6b83f12E+0x1bc>  // b.any
    691c:	f85783aa 	ldur	x10, [x29, #-136]
    6920:	9100054a 	add	x10, x10, #0x1
    6924:	f81783aa 	stur	x10, [x29, #-136]
    6928:	7940d12a 	ldrh	w10, [x9, #104]
    692c:	7100b95f 	cmp	w10, #0x2e
    6930:	54000481 	b.ne	69c0 <_ZN4core4cell4once17OnceCell$LT$T$GT$8try_init17h5f04ae72a6b83f12E+0x254>  // b.any
    6934:	b9400128 	ldr	w8, [x9]
    6938:	7100051f 	cmp	w8, #0x1
    693c:	540005a1 	b.ne	69f0 <_ZN4core4cell4once17OnceCell$LT$T$GT$8try_init17h5f04ae72a6b83f12E+0x284>  // b.any
    6940:	a9411135 	ldp	x21, x4, [x9, #16]
    6944:	b5000604 	cbnz	x4, 6a04 <_ZN4core4cell4once17OnceCell$LT$T$GT$8try_init17h5f04ae72a6b83f12E+0x298>
    6948:	14000104 	b	6d58 <_ZN4core4cell4once17OnceCell$LT$T$GT$8try_init17h5f04ae72a6b83f12E+0x5ec>
    694c:	f85783a8 	ldur	x8, [x29, #-136]
    6950:	d1000508 	sub	x8, x8, #0x1
    6954:	f81783a8 	stur	x8, [x29, #-136]
    6958:	14000100 	b	6d58 <_ZN4core4cell4once17OnceCell$LT$T$GT$8try_init17h5f04ae72a6b83f12E+0x5ec>
    695c:	f9400d49 	ldr	x9, [x10, #24]
    6960:	b4003529 	cbz	x9, 7004 <_ZN4core4cell4once17OnceCell$LT$T$GT$8try_init17h5f04ae72a6b83f12E+0x898>
    6964:	f940114a 	ldr	x10, [x10, #32]
    6968:	794a652c 	ldrh	w12, [x9, #1330]
    696c:	9113612e 	add	x14, x9, #0x4d8
    6970:	9280000b 	mov	x11, #0xffffffffffffffff    	// #-1
    6974:	d37df18d 	lsl	x13, x12, #3
    6978:	b400018d 	cbz	x13, 69a8 <_ZN4core4cell4once17OnceCell$LT$T$GT$8try_init17h5f04ae72a6b83f12E+0x23c>
    697c:	f84085cf 	ldr	x15, [x14], #8
    6980:	d10021ad 	sub	x13, x13, #0x8
    6984:	9100056b 	add	x11, x11, #0x1
    6988:	eb0f02bf 	cmp	x21, x15
    698c:	1a9f97ef 	cset	w15, hi  // hi = pmore
    6990:	5a9f21ef 	csinv	w15, w15, wzr, cs  // cs = hs, nlast
    6994:	12001def 	and	w15, w15, #0xff
    6998:	710005ff 	cmp	w15, #0x1
    699c:	54fffee0 	b.eq	6978 <_ZN4core4cell4once17OnceCell$LT$T$GT$8try_init17h5f04ae72a6b83f12E+0x20c>  // b.none
    69a0:	3500006f 	cbnz	w15, 69ac <_ZN4core4cell4once17OnceCell$LT$T$GT$8try_init17h5f04ae72a6b83f12E+0x240>
    69a4:	1400000d 	b	69d8 <_ZN4core4cell4once17OnceCell$LT$T$GT$8try_init17h5f04ae72a6b83f12E+0x26c>
    69a8:	aa0c03eb 	mov	x11, x12
    69ac:	b40032ca 	cbz	x10, 7004 <_ZN4core4cell4once17OnceCell$LT$T$GT$8try_init17h5f04ae72a6b83f12E+0x898>
    69b0:	8b0b0d29 	add	x9, x9, x11, lsl #3
    69b4:	d100054a 	sub	x10, x10, #0x1
    69b8:	f9429d29 	ldr	x9, [x9, #1336]
    69bc:	17ffffeb 	b	6968 <_ZN4core4cell4once17OnceCell$LT$T$GT$8try_init17h5f04ae72a6b83f12E+0x1fc>
    69c0:	b940012a 	ldr	w10, [x9]
    69c4:	7100055f 	cmp	w10, #0x1
    69c8:	54001ae1 	b.ne	6d24 <_ZN4core4cell4once17OnceCell$LT$T$GT$8try_init17h5f04ae72a6b83f12E+0x5b8>  // b.any
    69cc:	a9411123 	ldp	x3, x4, [x9, #16]
    69d0:	aa1703f5 	mov	x21, x23
    69d4:	140000d9 	b	6d38 <_ZN4core4cell4once17OnceCell$LT$T$GT$8try_init17h5f04ae72a6b83f12E+0x5cc>
    69d8:	52800e0a 	mov	w10, #0x70                  	// #112
    69dc:	9b0a2569 	madd	x9, x11, x10, x9
    69e0:	3941a92a 	ldrb	w10, [x9, #106]
    69e4:	7100055f 	cmp	w10, #0x1
    69e8:	54fff9a0 	b.eq	691c <_ZN4core4cell4once17OnceCell$LT$T$GT$8try_init17h5f04ae72a6b83f12E+0x1b0>  // b.none
    69ec:	17ffffcf 	b	6928 <_ZN4core4cell4once17OnceCell$LT$T$GT$8try_init17h5f04ae72a6b83f12E+0x1bc>
    69f0:	f9400524 	ldr	x4, [x9, #8]
    69f4:	f100189f 	cmp	x4, #0x6
    69f8:	54004402 	b.cs	7278 <_ZN4core4cell4once17OnceCell$LT$T$GT$8try_init17h5f04ae72a6b83f12E+0xb0c>  // b.hs, b.nlast
    69fc:	91004135 	add	x21, x9, #0x10
    6a00:	b4001ac4 	cbz	x4, 6d58 <_ZN4core4cell4once17OnceCell$LT$T$GT$8try_init17h5f04ae72a6b83f12E+0x5ec>
    6a04:	f90013f7 	str	x23, [sp, #32]
    6a08:	d37cec97 	lsl	x23, x4, #4
    6a0c:	f90027ff 	str	xzr, [sp, #72]
    6a10:	b90037ff 	str	wzr, [sp, #52]
    6a14:	b90053ff 	str	wzr, [sp, #80]
    6a18:	14000008 	b	6a38 <_ZN4core4cell4once17OnceCell$LT$T$GT$8try_init17h5f04ae72a6b83f12E+0x2cc>
    6a1c:	f85d83a8 	ldur	x8, [x29, #-40]
    6a20:	f90023e8 	str	x8, [sp, #64]
    6a24:	52800028 	mov	w8, #0x1                   	// #1
    6a28:	b9004fe8 	str	w8, [sp, #76]
    6a2c:	f10042f7 	subs	x23, x23, #0x10
    6a30:	910042b5 	add	x21, x21, #0x10
    6a34:	540019c0 	b.eq	6d6c <_ZN4core4cell4once17OnceCell$LT$T$GT$8try_init17h5f04ae72a6b83f12E+0x600>  // b.none
    6a38:	f85683a8 	ldur	x8, [x29, #-152]
    6a3c:	3dc002a0 	ldr	q0, [x21]
    6a40:	d10203a0 	sub	x0, x29, #0x80
    6a44:	d102a3a1 	sub	x1, x29, #0xa8
    6a48:	d100c3a3 	sub	x3, x29, #0x30
    6a4c:	b9404902 	ldr	w2, [x8, #72]
    6a50:	d10203a8 	sub	x8, x29, #0x80
    6a54:	3d801500 	str	q0, [x8, #80]
    6a58:	940085cf 	bl	28194 <_ZN5gimli4read4unit15parse_attribute17h1ad3e2b925521b15E>
    6a5c:	f85803a8 	ldur	x8, [x29, #-128]
    6a60:	f100b91f 	cmp	x8, #0x2e
    6a64:	54002c60 	b.eq	6ff0 <_ZN4core4cell4once17OnceCell$LT$T$GT$8try_init17h5f04ae72a6b83f12E+0x884>  // b.none
    6a68:	785983a8 	ldurh	w8, [x29, #-104]
    6a6c:	7101551f 	cmp	w8, #0x55
    6a70:	540007e0 	b.eq	6b6c <_ZN4core4cell4once17OnceCell$LT$T$GT$8try_init17h5f04ae72a6b83f12E+0x400>  // b.none
    6a74:	7100491f 	cmp	w8, #0x12
    6a78:	540003e0 	b.eq	6af4 <_ZN4core4cell4once17OnceCell$LT$T$GT$8try_init17h5f04ae72a6b83f12E+0x388>  // b.none
    6a7c:	7100451f 	cmp	w8, #0x11
    6a80:	54fffd61 	b.ne	6a2c <_ZN4core4cell4once17OnceCell$LT$T$GT$8try_init17h5f04ae72a6b83f12E+0x2c0>  // b.any
    6a84:	d100c3a0 	sub	x0, x29, #0x30
    6a88:	d10203a1 	sub	x1, x29, #0x80
    6a8c:	94008e47 	bl	2a3a8 <_ZN5gimli4read4unit18Attribute$LT$R$GT$5value17h7f5d1f83361d8fa8E>
    6a90:	f85d03a8 	ldur	x8, [x29, #-48]
    6a94:	b4fffc48 	cbz	x8, 6a1c <_ZN4core4cell4once17OnceCell$LT$T$GT$8try_init17h5f04ae72a6b83f12E+0x2b0>
    6a98:	f100311f 	cmp	x8, #0xc
    6a9c:	54fffc81 	b.ne	6a2c <_ZN4core4cell4once17OnceCell$LT$T$GT$8try_init17h5f04ae72a6b83f12E+0x2c0>  // b.any
    6aa0:	eb14037f 	cmp	x27, x20
    6aa4:	540034c3 	b.cc	713c <_ZN4core4cell4once17OnceCell$LT$T$GT$8try_init17h5f04ae72a6b83f12E+0x9d0>  // b.lo, b.ul, b.last
    6aa8:	f85d83a8 	ldur	x8, [x29, #-40]
    6aac:	f9405fe9 	ldr	x9, [sp, #184]
    6ab0:	9b097d0a 	mul	x10, x8, x9
    6ab4:	f94067e8 	ldr	x8, [sp, #200]
    6ab8:	eb0a0109 	subs	x9, x8, x10
    6abc:	54003483 	b.cc	714c <_ZN4core4cell4once17OnceCell$LT$T$GT$8try_init17h5f04ae72a6b83f12E+0x9e0>  // b.lo, b.ul, b.last
    6ac0:	f94063e8 	ldr	x8, [sp, #192]
    6ac4:	12001f0b 	and	w11, w24, #0xff
    6ac8:	71000d7f 	cmp	w11, #0x3
    6acc:	8b0a0108 	add	x8, x8, x10
    6ad0:	54000bac 	b.gt	6c44 <_ZN4core4cell4once17OnceCell$LT$T$GT$8try_init17h5f04ae72a6b83f12E+0x4d8>
    6ad4:	7100057f 	cmp	w11, #0x1
    6ad8:	54000f20 	b.eq	6cbc <_ZN4core4cell4once17OnceCell$LT$T$GT$8try_init17h5f04ae72a6b83f12E+0x550>  // b.none
    6adc:	7100097f 	cmp	w11, #0x2
    6ae0:	54003681 	b.ne	71b0 <_ZN4core4cell4once17OnceCell$LT$T$GT$8try_init17h5f04ae72a6b83f12E+0xa44>  // b.any
    6ae4:	f100053f 	cmp	x9, #0x1
    6ae8:	540033a9 	b.ls	715c <_ZN4core4cell4once17OnceCell$LT$T$GT$8try_init17h5f04ae72a6b83f12E+0x9f0>  // b.plast
    6aec:	79400108 	ldrh	w8, [x8]
    6af0:	1400007b 	b	6cdc <_ZN4core4cell4once17OnceCell$LT$T$GT$8try_init17h5f04ae72a6b83f12E+0x570>
    6af4:	d100c3a0 	sub	x0, x29, #0x30
    6af8:	d10203a1 	sub	x1, x29, #0x80
    6afc:	94008e2b 	bl	2a3a8 <_ZN5gimli4read4unit18Attribute$LT$R$GT$5value17h7f5d1f83361d8fa8E>
    6b00:	f85d03a8 	ldur	x8, [x29, #-48]
    6b04:	b4000868 	cbz	x8, 6c10 <_ZN4core4cell4once17OnceCell$LT$T$GT$8try_init17h5f04ae72a6b83f12E+0x4a4>
    6b08:	f1001d1f 	cmp	x8, #0x7
    6b0c:	54000780 	b.eq	6bfc <_ZN4core4cell4once17OnceCell$LT$T$GT$8try_init17h5f04ae72a6b83f12E+0x490>  // b.none
    6b10:	f100311f 	cmp	x8, #0xc
    6b14:	54fff8c1 	b.ne	6a2c <_ZN4core4cell4once17OnceCell$LT$T$GT$8try_init17h5f04ae72a6b83f12E+0x2c0>  // b.any
    6b18:	eb14037f 	cmp	x27, x20
    6b1c:	54003103 	b.cc	713c <_ZN4core4cell4once17OnceCell$LT$T$GT$8try_init17h5f04ae72a6b83f12E+0x9d0>  // b.lo, b.ul, b.last
    6b20:	f85d83a8 	ldur	x8, [x29, #-40]
    6b24:	f9405fe9 	ldr	x9, [sp, #184]
    6b28:	9b097d0a 	mul	x10, x8, x9
    6b2c:	f94067e8 	ldr	x8, [sp, #200]
    6b30:	eb0a0109 	subs	x9, x8, x10
    6b34:	540030c3 	b.cc	714c <_ZN4core4cell4once17OnceCell$LT$T$GT$8try_init17h5f04ae72a6b83f12E+0x9e0>  // b.lo, b.ul, b.last
    6b38:	f94063e8 	ldr	x8, [sp, #192]
    6b3c:	12001f0b 	and	w11, w24, #0xff
    6b40:	71000d7f 	cmp	w11, #0x3
    6b44:	8b0a0108 	add	x8, x8, x10
    6b48:	540009cc 	b.gt	6c80 <_ZN4core4cell4once17OnceCell$LT$T$GT$8try_init17h5f04ae72a6b83f12E+0x514>
    6b4c:	7100057f 	cmp	w11, #0x1
    6b50:	54000d00 	b.eq	6cf0 <_ZN4core4cell4once17OnceCell$LT$T$GT$8try_init17h5f04ae72a6b83f12E+0x584>  // b.none
    6b54:	7100097f 	cmp	w11, #0x2
    6b58:	54003341 	b.ne	71c0 <_ZN4core4cell4once17OnceCell$LT$T$GT$8try_init17h5f04ae72a6b83f12E+0xa54>  // b.any
    6b5c:	f100053f 	cmp	x9, #0x1
    6b60:	54002fe9 	b.ls	715c <_ZN4core4cell4once17OnceCell$LT$T$GT$8try_init17h5f04ae72a6b83f12E+0x9f0>  // b.plast
    6b64:	79400108 	ldrh	w8, [x8]
    6b68:	1400006a 	b	6d10 <_ZN4core4cell4once17OnceCell$LT$T$GT$8try_init17h5f04ae72a6b83f12E+0x5a4>
    6b6c:	d100c3a0 	sub	x0, x29, #0x30
    6b70:	d10203a1 	sub	x1, x29, #0x80
    6b74:	94008e0d 	bl	2a3a8 <_ZN5gimli4read4unit18Attribute$LT$R$GT$5value17h7f5d1f83361d8fa8E>
    6b78:	a97d23a9 	ldp	x9, x8, [x29, #-48]
    6b7c:	f100593f 	cmp	x9, #0x16
    6b80:	54000340 	b.eq	6be8 <_ZN4core4cell4once17OnceCell$LT$T$GT$8try_init17h5f04ae72a6b83f12E+0x47c>  // b.none
    6b84:	f100613f 	cmp	x9, #0x18
    6b88:	54000361 	b.ne	6bf4 <_ZN4core4cell4once17OnceCell$LT$T$GT$8try_init17h5f04ae72a6b83f12E+0x488>  // b.any
    6b8c:	f9405be9 	ldr	x9, [sp, #176]
    6b90:	eb19013f 	cmp	x9, x25
    6b94:	54002fe3 	b.cc	7190 <_ZN4core4cell4once17OnceCell$LT$T$GT$8try_init17h5f04ae72a6b83f12E+0xa24>  // b.lo, b.ul, b.last
    6b98:	a949a7ea 	ldp	x10, x9, [sp, #152]
    6b9c:	9b0a7d08 	mul	x8, x8, x10
    6ba0:	eb080129 	subs	x9, x9, x8
    6ba4:	54002fa3 	b.cc	7198 <_ZN4core4cell4once17OnceCell$LT$T$GT$8try_init17h5f04ae72a6b83f12E+0xa2c>  // b.lo, b.ul, b.last
    6ba8:	b9408fea 	ldr	w10, [sp, #140]
    6bac:	7120015f 	cmp	w10, #0x800
    6bb0:	f9404bea 	ldr	x10, [sp, #144]
    6bb4:	8b080148 	add	x8, x10, x8
    6bb8:	54000361 	b.ne	6c24 <_ZN4core4cell4once17OnceCell$LT$T$GT$8try_init17h5f04ae72a6b83f12E+0x4b8>  // b.any
    6bbc:	f1001d3f 	cmp	x9, #0x7
    6bc0:	54002f09 	b.ls	71a0 <_ZN4core4cell4once17OnceCell$LT$T$GT$8try_init17h5f04ae72a6b83f12E+0xa34>  // b.plast
    6bc4:	39401909 	ldrb	w9, [x8, #6]
    6bc8:	7940090a 	ldrh	w10, [x8, #4]
    6bcc:	b940010b 	ldr	w11, [x8]
    6bd0:	39401d08 	ldrb	w8, [x8, #7]
    6bd4:	2a094149 	orr	w9, w10, w9, lsl #16
    6bd8:	d378dd6a 	lsl	x10, x11, #8
    6bdc:	aa09a149 	orr	x9, x10, x9, lsl #40
    6be0:	93c92108 	extr	x8, x8, x9, #8
    6be4:	14000013 	b	6c30 <_ZN4core4cell4once17OnceCell$LT$T$GT$8try_init17h5f04ae72a6b83f12E+0x4c4>
    6be8:	f94057e9 	ldr	x9, [sp, #168]
    6bec:	8b090108 	add	x8, x8, x9
    6bf0:	14000011 	b	6c34 <_ZN4core4cell4once17OnceCell$LT$T$GT$8try_init17h5f04ae72a6b83f12E+0x4c8>
    6bf4:	b90053ff 	str	wzr, [sp, #80]
    6bf8:	17ffff8d 	b	6a2c <_ZN4core4cell4once17OnceCell$LT$T$GT$8try_init17h5f04ae72a6b83f12E+0x2c0>
    6bfc:	f85d83a8 	ldur	x8, [x29, #-40]
    6c00:	f9000be8 	str	x8, [sp, #16]
    6c04:	52800028 	mov	w8, #0x1                   	// #1
    6c08:	b90037e8 	str	w8, [sp, #52]
    6c0c:	17ffff88 	b	6a2c <_ZN4core4cell4once17OnceCell$LT$T$GT$8try_init17h5f04ae72a6b83f12E+0x2c0>
    6c10:	f85d83a8 	ldur	x8, [x29, #-40]
    6c14:	f90017e8 	str	x8, [sp, #40]
    6c18:	52800028 	mov	w8, #0x1                   	// #1
    6c1c:	b9004be8 	str	w8, [sp, #72]
    6c20:	17ffff83 	b	6a2c <_ZN4core4cell4once17OnceCell$LT$T$GT$8try_init17h5f04ae72a6b83f12E+0x2c0>
    6c24:	f1000d3f 	cmp	x9, #0x3
    6c28:	54002bc9 	b.ls	71a0 <_ZN4core4cell4once17OnceCell$LT$T$GT$8try_init17h5f04ae72a6b83f12E+0xa34>  // b.plast
    6c2c:	b9400108 	ldr	w8, [x8]
    6c30:	8b190108 	add	x8, x8, x25
    6c34:	f9001fe8 	str	x8, [sp, #56]
    6c38:	52800028 	mov	w8, #0x1                   	// #1
    6c3c:	b90053e8 	str	w8, [sp, #80]
    6c40:	17ffff7b 	b	6a2c <_ZN4core4cell4once17OnceCell$LT$T$GT$8try_init17h5f04ae72a6b83f12E+0x2c0>
    6c44:	7100117f 	cmp	w11, #0x4
    6c48:	54000440 	b.eq	6cd0 <_ZN4core4cell4once17OnceCell$LT$T$GT$8try_init17h5f04ae72a6b83f12E+0x564>  // b.none
    6c4c:	7100217f 	cmp	w11, #0x8
    6c50:	54002b01 	b.ne	71b0 <_ZN4core4cell4once17OnceCell$LT$T$GT$8try_init17h5f04ae72a6b83f12E+0xa44>  // b.any
    6c54:	f1001d3f 	cmp	x9, #0x7
    6c58:	54002829 	b.ls	715c <_ZN4core4cell4once17OnceCell$LT$T$GT$8try_init17h5f04ae72a6b83f12E+0x9f0>  // b.plast
    6c5c:	39401909 	ldrb	w9, [x8, #6]
    6c60:	7940090a 	ldrh	w10, [x8, #4]
    6c64:	b940010b 	ldr	w11, [x8]
    6c68:	39401d08 	ldrb	w8, [x8, #7]
    6c6c:	2a094149 	orr	w9, w10, w9, lsl #16
    6c70:	d378dd6a 	lsl	x10, x11, #8
    6c74:	aa09a149 	orr	x9, x10, x9, lsl #40
    6c78:	93c92108 	extr	x8, x8, x9, #8
    6c7c:	14000018 	b	6cdc <_ZN4core4cell4once17OnceCell$LT$T$GT$8try_init17h5f04ae72a6b83f12E+0x570>
    6c80:	7100117f 	cmp	w11, #0x4
    6c84:	54000400 	b.eq	6d04 <_ZN4core4cell4once17OnceCell$LT$T$GT$8try_init17h5f04ae72a6b83f12E+0x598>  // b.none
    6c88:	7100217f 	cmp	w11, #0x8
    6c8c:	540029a1 	b.ne	71c0 <_ZN4core4cell4once17OnceCell$LT$T$GT$8try_init17h5f04ae72a6b83f12E+0xa54>  // b.any
    6c90:	f1001d3f 	cmp	x9, #0x7
    6c94:	54002649 	b.ls	715c <_ZN4core4cell4once17OnceCell$LT$T$GT$8try_init17h5f04ae72a6b83f12E+0x9f0>  // b.plast
    6c98:	39401909 	ldrb	w9, [x8, #6]
    6c9c:	7940090a 	ldrh	w10, [x8, #4]
    6ca0:	b940010b 	ldr	w11, [x8]
    6ca4:	39401d08 	ldrb	w8, [x8, #7]
    6ca8:	2a094149 	orr	w9, w10, w9, lsl #16
    6cac:	d378dd6a 	lsl	x10, x11, #8
    6cb0:	aa09a149 	orr	x9, x10, x9, lsl #40
    6cb4:	93c92108 	extr	x8, x8, x9, #8
    6cb8:	14000016 	b	6d10 <_ZN4core4cell4once17OnceCell$LT$T$GT$8try_init17h5f04ae72a6b83f12E+0x5a4>
    6cbc:	f94067e9 	ldr	x9, [sp, #200]
    6cc0:	eb0a013f 	cmp	x9, x10
    6cc4:	540024c0 	b.eq	715c <_ZN4core4cell4once17OnceCell$LT$T$GT$8try_init17h5f04ae72a6b83f12E+0x9f0>  // b.none
    6cc8:	39400108 	ldrb	w8, [x8]
    6ccc:	14000004 	b	6cdc <_ZN4core4cell4once17OnceCell$LT$T$GT$8try_init17h5f04ae72a6b83f12E+0x570>
    6cd0:	f1000d3f 	cmp	x9, #0x3
    6cd4:	54002449 	b.ls	715c <_ZN4core4cell4once17OnceCell$LT$T$GT$8try_init17h5f04ae72a6b83f12E+0x9f0>  // b.plast
    6cd8:	b9400108 	ldr	w8, [x8]
    6cdc:	52800029 	mov	w9, #0x1                   	// #1
    6ce0:	f9000fe8 	str	x8, [sp, #24]
    6ce4:	b9004fe9 	str	w9, [sp, #76]
    6ce8:	f90023e8 	str	x8, [sp, #64]
    6cec:	17ffff50 	b	6a2c <_ZN4core4cell4once17OnceCell$LT$T$GT$8try_init17h5f04ae72a6b83f12E+0x2c0>
    6cf0:	f94067e9 	ldr	x9, [sp, #200]
    6cf4:	eb0a013f 	cmp	x9, x10
    6cf8:	54002320 	b.eq	715c <_ZN4core4cell4once17OnceCell$LT$T$GT$8try_init17h5f04ae72a6b83f12E+0x9f0>  // b.none
    6cfc:	39400108 	ldrb	w8, [x8]
    6d00:	14000004 	b	6d10 <_ZN4core4cell4once17OnceCell$LT$T$GT$8try_init17h5f04ae72a6b83f12E+0x5a4>
    6d04:	f1000d3f 	cmp	x9, #0x3
    6d08:	540022a9 	b.ls	715c <_ZN4core4cell4once17OnceCell$LT$T$GT$8try_init17h5f04ae72a6b83f12E+0x9f0>  // b.plast
    6d0c:	b9400108 	ldr	w8, [x8]
    6d10:	52800029 	mov	w9, #0x1                   	// #1
    6d14:	f90007e8 	str	x8, [sp, #8]
    6d18:	b9004be9 	str	w9, [sp, #72]
    6d1c:	f90017e8 	str	x8, [sp, #40]
    6d20:	17ffff43 	b	6a2c <_ZN4core4cell4once17OnceCell$LT$T$GT$8try_init17h5f04ae72a6b83f12E+0x2c0>
    6d24:	f9400524 	ldr	x4, [x9, #8]
    6d28:	f100149f 	cmp	x4, #0x5
    6d2c:	54002a68 	b.hi	7278 <_ZN4core4cell4once17OnceCell$LT$T$GT$8try_init17h5f04ae72a6b83f12E+0xb0c>  // b.pmore
    6d30:	aa1703f5 	mov	x21, x23
    6d34:	91004123 	add	x3, x9, #0x10
    6d38:	b9404902 	ldr	w2, [x8, #72]
    6d3c:	d10203a0 	sub	x0, x29, #0x80
    6d40:	d102a3a1 	sub	x1, x29, #0xa8
    6d44:	9400965c 	bl	2c6b4 <_ZN5gimli4read4unit15skip_attributes17h04dff5e02a177619E>
    6d48:	385803b7 	ldurb	w23, [x29, #-128]
    6d4c:	71014aff 	cmp	w23, #0x52
    6d50:	54002101 	b.ne	7170 <_ZN4core4cell4once17OnceCell$LT$T$GT$8try_init17h5f04ae72a6b83f12E+0xa04>  // b.any
    6d54:	aa1503f7 	mov	x23, x21
    6d58:	f85603a9 	ldur	x9, [x29, #-160]
    6d5c:	5280008f 	mov	w15, #0x4                   	// #4
    6d60:	52800190 	mov	w16, #0xc                   	// #12
    6d64:	b5ffd849 	cbnz	x9, 686c <_ZN4core4cell4once17OnceCell$LT$T$GT$8try_init17h5f04ae72a6b83f12E+0x100>
    6d68:	140000ab 	b	7014 <_ZN4core4cell4once17OnceCell$LT$T$GT$8try_init17h5f04ae72a6b83f12E+0x8a8>
    6d6c:	b94053e8 	ldr	w8, [sp, #80]
    6d70:	36000608 	tbz	w8, #0, 6e30 <_ZN4core4cell4once17OnceCell$LT$T$GT$8try_init17h5f04ae72a6b83f12E+0x6c4>
    6d74:	a94727ea 	ldp	x10, x9, [sp, #112]
    6d78:	f94037e8 	ldr	x8, [sp, #104]
    6d7c:	f8686928 	ldr	x8, [x9, x8]
    6d80:	f86a6935 	ldr	x21, [x9, x10]
    6d84:	f9401fe9 	ldr	x9, [sp, #56]
    6d88:	eb090108 	subs	x8, x8, x9
    6d8c:	540020c3 	b.cc	71a4 <_ZN4core4cell4once17OnceCell$LT$T$GT$8try_init17h5f04ae72a6b83f12E+0xa38>  // b.lo, b.ul, b.last
    6d90:	aa0903ea 	mov	x10, x9
    6d94:	f94043e9 	ldr	x9, [sp, #128]
    6d98:	2a1f03f7 	mov	w23, wzr
    6d9c:	f9002bfa 	str	x26, [sp, #80]
    6da0:	a9386fa9 	stp	x9, x27, [x29, #-128]
    6da4:	f9402fe9 	ldr	x9, [sp, #88]
    6da8:	781b03b8 	sturh	w24, [x29, #-80]
    6dac:	a93953a9 	stp	x9, x20, [x29, #-112]
    6db0:	8b0a02a9 	add	x9, x21, x10
    6db4:	a93a23a9 	stp	x9, x8, [x29, #-96]
    6db8:	294c27e8 	ldp	w8, w9, [sp, #96]
    6dbc:	781b23a9 	sturh	w9, [x29, #-78]
    6dc0:	381b43a8 	sturb	w8, [x29, #-76]
    6dc4:	d100c3a0 	sub	x0, x29, #0x30
    6dc8:	d10203a1 	sub	x1, x29, #0x80
    6dcc:	940097b8 	bl	2ccac <_ZN5gimli4read8rnglists20RngListIter$LT$R$GT$4next17hc968f80fef6e1452E>
    6dd0:	a97d6ba8 	ldp	x8, x26, [x29, #-48]
    6dd4:	f85e03b5 	ldur	x21, [x29, #-32]
    6dd8:	f100091f 	cmp	x8, #0x2
    6ddc:	54000740 	b.eq	6ec4 <_ZN4core4cell4once17OnceCell$LT$T$GT$8try_init17h5f04ae72a6b83f12E+0x758>  // b.none
    6de0:	36000808 	tbz	w8, #0, 6ee0 <_ZN4core4cell4once17OnceCell$LT$T$GT$8try_init17h5f04ae72a6b83f12E+0x774>
    6de4:	eb15035f 	cmp	x26, x21
    6de8:	54fffee2 	b.cs	6dc4 <_ZN4core4cell4once17OnceCell$LT$T$GT$8try_init17h5f04ae72a6b83f12E+0x658>  // b.hs, b.nlast
    6dec:	f85403a8 	ldur	x8, [x29, #-192]
    6df0:	f9402be9 	ldr	x9, [sp, #80]
    6df4:	eb08013f 	cmp	x9, x8
    6df8:	54000081 	b.ne	6e08 <_ZN4core4cell4once17OnceCell$LT$T$GT$8try_init17h5f04ae72a6b83f12E+0x69c>  // b.any
    6dfc:	d10303a0 	sub	x0, x29, #0xc0
    6e00:	97fffe10 	bl	6640 <_ZN5alloc7raw_vec19RawVec$LT$T$C$A$GT$8grow_one17h8aa5fe4f2d21d34fE>
    6e04:	f85483bc 	ldur	x28, [x29, #-184]
    6e08:	f9402be9 	ldr	x9, [sp, #80]
    6e0c:	52800308 	mov	w8, #0x18                  	// #24
    6e10:	52800037 	mov	w23, #0x1                   	// #1
    6e14:	9b087128 	madd	x8, x9, x8, x28
    6e18:	91000529 	add	x9, x9, #0x1
    6e1c:	f9002be9 	str	x9, [sp, #80]
    6e20:	a900551a 	stp	x26, x21, [x8]
    6e24:	f9000916 	str	x22, [x8, #16]
    6e28:	f81503a9 	stur	x9, [x29, #-176]
    6e2c:	17ffffe6 	b	6dc4 <_ZN4core4cell4once17OnceCell$LT$T$GT$8try_init17h5f04ae72a6b83f12E+0x658>
    6e30:	29492be8 	ldp	w8, w10, [sp, #72]
    6e34:	f94013f7 	ldr	x23, [sp, #32]
    6e38:	f94023e9 	ldr	x9, [sp, #64]
    6e3c:	0a080148 	and	w8, w10, w8
    6e40:	36000188 	tbz	w8, #0, 6e70 <_ZN4core4cell4once17OnceCell$LT$T$GT$8try_init17h5f04ae72a6b83f12E+0x704>
    6e44:	f94017f5 	ldr	x21, [sp, #40]
    6e48:	eb15013f 	cmp	x9, x21
    6e4c:	54fff862 	b.cs	6d58 <_ZN4core4cell4once17OnceCell$LT$T$GT$8try_init17h5f04ae72a6b83f12E+0x5ec>  // b.hs, b.nlast
    6e50:	f85403a8 	ldur	x8, [x29, #-192]
    6e54:	eb08035f 	cmp	x26, x8
    6e58:	54000261 	b.ne	6ea4 <_ZN4core4cell4once17OnceCell$LT$T$GT$8try_init17h5f04ae72a6b83f12E+0x738>  // b.any
    6e5c:	d10303a0 	sub	x0, x29, #0xc0
    6e60:	97fffdf8 	bl	6640 <_ZN5alloc7raw_vec19RawVec$LT$T$C$A$GT$8grow_one17h8aa5fe4f2d21d34fE>
    6e64:	f85483bc 	ldur	x28, [x29, #-184]
    6e68:	f94017f5 	ldr	x21, [sp, #40]
    6e6c:	1400000e 	b	6ea4 <_ZN4core4cell4once17OnceCell$LT$T$GT$8try_init17h5f04ae72a6b83f12E+0x738>
    6e70:	b94037e8 	ldr	w8, [sp, #52]
    6e74:	0a080148 	and	w8, w10, w8
    6e78:	3607f708 	tbz	w8, #0, 6d58 <_ZN4core4cell4once17OnceCell$LT$T$GT$8try_init17h5f04ae72a6b83f12E+0x5ec>
    6e7c:	f9400be8 	ldr	x8, [sp, #16]
    6e80:	8b080135 	add	x21, x9, x8
    6e84:	eb15013f 	cmp	x9, x21
    6e88:	54fff682 	b.cs	6d58 <_ZN4core4cell4once17OnceCell$LT$T$GT$8try_init17h5f04ae72a6b83f12E+0x5ec>  // b.hs, b.nlast
    6e8c:	f85403a8 	ldur	x8, [x29, #-192]
    6e90:	eb08035f 	cmp	x26, x8
    6e94:	54000081 	b.ne	6ea4 <_ZN4core4cell4once17OnceCell$LT$T$GT$8try_init17h5f04ae72a6b83f12E+0x738>  // b.any
    6e98:	d10303a0 	sub	x0, x29, #0xc0
    6e9c:	97fffde9 	bl	6640 <_ZN5alloc7raw_vec19RawVec$LT$T$C$A$GT$8grow_one17h8aa5fe4f2d21d34fE>
    6ea0:	f85483bc 	ldur	x28, [x29, #-184]
    6ea4:	52800308 	mov	w8, #0x18                  	// #24
    6ea8:	f94023e9 	ldr	x9, [sp, #64]
    6eac:	9b087348 	madd	x8, x26, x8, x28
    6eb0:	9100075a 	add	x26, x26, #0x1
    6eb4:	a9005509 	stp	x9, x21, [x8]
    6eb8:	f9000916 	str	x22, [x8, #16]
    6ebc:	f81503ba 	stur	x26, [x29, #-176]
    6ec0:	1400000b 	b	6eec <_ZN4core4cell4once17OnceCell$LT$T$GT$8try_init17h5f04ae72a6b83f12E+0x780>
    6ec4:	12001f57 	and	w23, w26, #0xff
    6ec8:	71014aff 	cmp	w23, #0x52
    6ecc:	54001d01 	b.ne	726c <_ZN4core4cell4once17OnceCell$LT$T$GT$8try_init17h5f04ae72a6b83f12E+0xb00>  // b.any
    6ed0:	374000ba 	tbnz	w26, #8, 6ee4 <_ZN4core4cell4once17OnceCell$LT$T$GT$8try_init17h5f04ae72a6b83f12E+0x778>
    6ed4:	f9402bfa 	ldr	x26, [sp, #80]
    6ed8:	f94013f7 	ldr	x23, [sp, #32]
    6edc:	17ffff9f 	b	6d58 <_ZN4core4cell4once17OnceCell$LT$T$GT$8try_init17h5f04ae72a6b83f12E+0x5ec>
    6ee0:	3607ffb7 	tbz	w23, #0, 6ed4 <_ZN4core4cell4once17OnceCell$LT$T$GT$8try_init17h5f04ae72a6b83f12E+0x768>
    6ee4:	f9402bfa 	ldr	x26, [sp, #80]
    6ee8:	f94013f7 	ldr	x23, [sp, #32]
    6eec:	a94d27e8 	ldp	x8, x9, [sp, #208]
    6ef0:	f81803bf 	stur	xzr, [x29, #-128]
    6ef4:	eb0902df 	cmp	x22, x9
    6ef8:	f81c03a8 	stur	x8, [x29, #-64]
    6efc:	54000061 	b.ne	6f08 <_ZN4core4cell4once17OnceCell$LT$T$GT$8try_init17h5f04ae72a6b83f12E+0x79c>  // b.any
    6f00:	910363e0 	add	x0, sp, #0xd8
    6f04:	940002c6 	bl	7a1c <_ZN5alloc7raw_vec19RawVec$LT$T$C$A$GT$8grow_one17h2403fd2a7e7a58b6E>
    6f08:	f94073e8 	ldr	x8, [sp, #224]
    6f0c:	52800909 	mov	w9, #0x48                  	// #72
    6f10:	3cd903a0 	ldur	q0, [x29, #-112]
    6f14:	9b0922c8 	madd	x8, x22, x9, x8
    6f18:	d10203a9 	sub	x9, x29, #0x80
    6f1c:	910006d6 	add	x22, x22, #0x1
    6f20:	f90077f6 	str	x22, [sp, #232]
    6f24:	3d800500 	str	q0, [x8, #16]
    6f28:	3cda03a0 	ldur	q0, [x29, #-96]
    6f2c:	3d800900 	str	q0, [x8, #32]
    6f30:	3dc00d20 	ldr	q0, [x9, #48]
    6f34:	3d800d00 	str	q0, [x8, #48]
    6f38:	f85c03a9 	ldur	x9, [x29, #-64]
    6f3c:	f9002109 	str	x9, [x8, #64]
    6f40:	3cd803a0 	ldur	q0, [x29, #-128]
    6f44:	3d800100 	str	q0, [x8]
    6f48:	17ffff84 	b	6d58 <_ZN4core4cell4once17OnceCell$LT$T$GT$8try_init17h5f04ae72a6b83f12E+0x5ec>
    6f4c:	aa1f03f9 	mov	x25, xzr
    6f50:	2a1f03f8 	mov	w24, wzr
    6f54:	528000d7 	mov	w23, #0x6                   	// #6
    6f58:	14000005 	b	6f6c <_ZN4core4cell4once17OnceCell$LT$T$GT$8try_init17h5f04ae72a6b83f12E+0x800>
    6f5c:	aa1f03f9 	mov	x25, xzr
    6f60:	2a1f03f8 	mov	w24, wzr
    6f64:	8b090175 	add	x21, x11, x9
    6f68:	52800277 	mov	w23, #0x13                  	// #19
    6f6c:	f85403a8 	ldur	x8, [x29, #-192]
    6f70:	b4000088 	cbz	x8, 6f80 <_ZN4core4cell4once17OnceCell$LT$T$GT$8try_init17h5f04ae72a6b83f12E+0x814>
    6f74:	f85483a0 	ldur	x0, [x29, #-184]
    6f78:	52800101 	mov	w1, #0x8                   	// #8
    6f7c:	94000929 	bl	9420 <_RNvCsiGVaDesi5rv_7___rustc14___rust_dealloc>
    6f80:	f94073f4 	ldr	x20, [sp, #224]
    6f84:	b4000296 	cbz	x22, 6fd4 <_ZN4core4cell4once17OnceCell$LT$T$GT$8try_init17h5f04ae72a6b83f12E+0x868>
    6f88:	9100429a 	add	x26, x20, #0x10
    6f8c:	14000004 	b	6f9c <_ZN4core4cell4once17OnceCell$LT$T$GT$8try_init17h5f04ae72a6b83f12E+0x830>
    6f90:	f10006d6 	subs	x22, x22, #0x1
    6f94:	9101235a 	add	x26, x26, #0x48
    6f98:	540001e0 	b.eq	6fd4 <_ZN4core4cell4once17OnceCell$LT$T$GT$8try_init17h5f04ae72a6b83f12E+0x868>  // b.none
    6f9c:	f85f0348 	ldur	x8, [x26, #-16]
    6fa0:	b4ffff88 	cbz	x8, 6f90 <_ZN4core4cell4once17OnceCell$LT$T$GT$8try_init17h5f04ae72a6b83f12E+0x824>
    6fa4:	f85f8340 	ldur	x0, [x26, #-8]
    6fa8:	b4ffff40 	cbz	x0, 6f90 <_ZN4core4cell4once17OnceCell$LT$T$GT$8try_init17h5f04ae72a6b83f12E+0x824>
    6fac:	f9400348 	ldr	x8, [x26]
    6fb0:	b4000068 	cbz	x8, 6fbc <_ZN4core4cell4once17OnceCell$LT$T$GT$8try_init17h5f04ae72a6b83f12E+0x850>
    6fb4:	52800101 	mov	w1, #0x8                   	// #8
    6fb8:	9400091a 	bl	9420 <_RNvCsiGVaDesi5rv_7___rustc14___rust_dealloc>
    6fbc:	f9400b48 	ldr	x8, [x26, #16]
    6fc0:	b4fffe88 	cbz	x8, 6f90 <_ZN4core4cell4once17OnceCell$LT$T$GT$8try_init17h5f04ae72a6b83f12E+0x824>
    6fc4:	f9400740 	ldr	x0, [x26, #8]
    6fc8:	52800101 	mov	w1, #0x8                   	// #8
    6fcc:	94000915 	bl	9420 <_RNvCsiGVaDesi5rv_7___rustc14___rust_dealloc>
    6fd0:	17fffff0 	b	6f90 <_ZN4core4cell4once17OnceCell$LT$T$GT$8try_init17h5f04ae72a6b83f12E+0x824>
    6fd4:	f9406fe8 	ldr	x8, [sp, #216]
    6fd8:	b4000088 	cbz	x8, 6fe8 <_ZN4core4cell4once17OnceCell$LT$T$GT$8try_init17h5f04ae72a6b83f12E+0x87c>
    6fdc:	aa1403e0 	mov	x0, x20
    6fe0:	52800101 	mov	w1, #0x8                   	// #8
    6fe4:	9400090f 	bl	9420 <_RNvCsiGVaDesi5rv_7___rustc14___rust_dealloc>
    6fe8:	aa1f03f4 	mov	x20, xzr
    6fec:	1400003f 	b	70e8 <_ZN4core4cell4once17OnceCell$LT$T$GT$8try_init17h5f04ae72a6b83f12E+0x97c>
    6ff0:	a978d7a8 	ldp	x8, x21, [x29, #-120]
    6ff4:	d348fd18 	lsr	x24, x8, #8
    6ff8:	d350fd19 	lsr	x25, x8, #16
    6ffc:	12001d17 	and	w23, w8, #0xff
    7000:	17ffffdb 	b	6f6c <_ZN4core4cell4once17OnceCell$LT$T$GT$8try_init17h5f04ae72a6b83f12E+0x800>
    7004:	aa1f03f9 	mov	x25, xzr
    7008:	2a1f03f8 	mov	w24, wzr
    700c:	52800257 	mov	w23, #0x12                  	// #18
    7010:	17ffffd7 	b	6f6c <_ZN4core4cell4once17OnceCell$LT$T$GT$8try_init17h5f04ae72a6b83f12E+0x800>
    7014:	f1000b5f 	cmp	x26, #0x2
    7018:	54000dc2 	b.cs	71d0 <_ZN4core4cell4once17OnceCell$LT$T$GT$8try_init17h5f04ae72a6b83f12E+0xa64>  // b.hs, b.nlast
    701c:	a94e5bf4 	ldp	x20, x22, [sp, #224]
    7020:	f9406fe8 	ldr	x8, [sp, #216]
    7024:	eb16011f 	cmp	x8, x22
    7028:	54000189 	b.ls	7058 <_ZN4core4cell4once17OnceCell$LT$T$GT$8try_init17h5f04ae72a6b83f12E+0x8ec>  // b.plast
    702c:	b40003d6 	cbz	x22, 70a4 <_ZN4core4cell4once17OnceCell$LT$T$GT$8try_init17h5f04ae72a6b83f12E+0x938>
    7030:	8b160ec9 	add	x9, x22, x22, lsl #3
    7034:	8b080d08 	add	x8, x8, x8, lsl #3
    7038:	aa1403e0 	mov	x0, x20
    703c:	52800102 	mov	w2, #0x8                   	// #8
    7040:	d37df135 	lsl	x21, x9, #3
    7044:	d37df101 	lsl	x1, x8, #3
    7048:	aa1503e3 	mov	x3, x21
    704c:	940008f6 	bl	9424 <_RNvCsiGVaDesi5rv_7___rustc14___rust_realloc>
    7050:	aa0003f4 	mov	x20, x0
    7054:	b4001420 	cbz	x0, 72d8 <_ZN4core4cell4once17OnceCell$LT$T$GT$8try_init17h5f04ae72a6b83f12E+0xb6c>
    7058:	a974ebb7 	ldp	x23, x26, [x29, #-184]
    705c:	f85403a8 	ldur	x8, [x29, #-192]
    7060:	eb1a011f 	cmp	x8, x26
    7064:	54000309 	b.ls	70c4 <_ZN4core4cell4once17OnceCell$LT$T$GT$8try_init17h5f04ae72a6b83f12E+0x958>  // b.plast
    7068:	b400033a 	cbz	x26, 70cc <_ZN4core4cell4once17OnceCell$LT$T$GT$8try_init17h5f04ae72a6b83f12E+0x960>
    706c:	8b1a0749 	add	x9, x26, x26, lsl #1
    7070:	8b080508 	add	x8, x8, x8, lsl #1
    7074:	aa1703e0 	mov	x0, x23
    7078:	52800102 	mov	w2, #0x8                   	// #8
    707c:	d37df138 	lsl	x24, x9, #3
    7080:	d37df101 	lsl	x1, x8, #3
    7084:	aa1803e3 	mov	x3, x24
    7088:	940008e7 	bl	9424 <_RNvCsiGVaDesi5rv_7___rustc14___rust_realloc>
    708c:	aa0003f5 	mov	x21, x0
    7090:	b5000260 	cbnz	x0, 70dc <_ZN4core4cell4once17OnceCell$LT$T$GT$8try_init17h5f04ae72a6b83f12E+0x970>
    7094:	52800100 	mov	w0, #0x8                   	// #8
    7098:	aa1803e1 	mov	x1, x24
    709c:	97fff404 	bl	40ac <_ZN5alloc7raw_vec12handle_error17hbfb8377505525b80E>
    70a0:	14000091 	b	72e4 <_ZN4core4cell4once17OnceCell$LT$T$GT$8try_init17h5f04ae72a6b83f12E+0xb78>
    70a4:	aa1403e0 	mov	x0, x20
    70a8:	52800101 	mov	w1, #0x8                   	// #8
    70ac:	940008dd 	bl	9420 <_RNvCsiGVaDesi5rv_7___rustc14___rust_dealloc>
    70b0:	52800114 	mov	w20, #0x8                   	// #8
    70b4:	a974ebb7 	ldp	x23, x26, [x29, #-184]
    70b8:	f85403a8 	ldur	x8, [x29, #-192]
    70bc:	eb1a011f 	cmp	x8, x26
    70c0:	54fffd48 	b.hi	7068 <_ZN4core4cell4once17OnceCell$LT$T$GT$8try_init17h5f04ae72a6b83f12E+0x8fc>  // b.pmore
    70c4:	aa1703f5 	mov	x21, x23
    70c8:	14000005 	b	70dc <_ZN4core4cell4once17OnceCell$LT$T$GT$8try_init17h5f04ae72a6b83f12E+0x970>
    70cc:	aa1703e0 	mov	x0, x23
    70d0:	52800101 	mov	w1, #0x8                   	// #8
    70d4:	52800115 	mov	w21, #0x8                   	// #8
    70d8:	940008d2 	bl	9420 <_RNvCsiGVaDesi5rv_7___rustc14___rust_dealloc>
    70dc:	d350fed9 	lsr	x25, x22, #16
    70e0:	d348fed8 	lsr	x24, x22, #8
    70e4:	12001ed7 	and	w23, w22, #0xff
    70e8:	d370bf28 	lsl	x8, x25, #16
    70ec:	b9400269 	ldr	w9, [x19]
    70f0:	2a1703ea 	mov	w10, w23
    70f4:	b3781f08 	bfi	x8, x24, #8, #8
    70f8:	7100053f 	cmp	w9, #0x1
    70fc:	aa0a0108 	orr	x8, x8, x10
    7100:	54000ca0 	b.eq	7294 <_ZN4core4cell4once17OnceCell$LT$T$GT$8try_init17h5f04ae72a6b83f12E+0xb28>  // b.none
    7104:	52800029 	mov	w9, #0x1                   	// #1
    7108:	aa1303e0 	mov	x0, x19
    710c:	a9015668 	stp	x8, x21, [x19, #16]
    7110:	f9000269 	str	x9, [x19]
    7114:	f8008c14 	str	x20, [x0, #8]!
    7118:	f900127a 	str	x26, [x19, #32]
    711c:	9106c3ff 	add	sp, sp, #0x1b0
    7120:	a9454ff4 	ldp	x20, x19, [sp, #80]
    7124:	a94457f6 	ldp	x22, x21, [sp, #64]
    7128:	a9435ff8 	ldp	x24, x23, [sp, #48]
    712c:	a94267fa 	ldp	x26, x25, [sp, #32]
    7130:	a9416ffc 	ldp	x28, x27, [sp, #16]
    7134:	a8c67bfd 	ldp	x29, x30, [sp], #96
    7138:	d65f03c0 	ret
    713c:	f94043f5 	ldr	x21, [sp, #128]
    7140:	52800277 	mov	w23, #0x13                  	// #19
    7144:	aa1f03f9 	mov	x25, xzr
    7148:	17ffff89 	b	6f6c <_ZN4core4cell4once17OnceCell$LT$T$GT$8try_init17h5f04ae72a6b83f12E+0x800>
    714c:	f94063f5 	ldr	x21, [sp, #192]
    7150:	52800277 	mov	w23, #0x13                  	// #19
    7154:	aa1f03f9 	mov	x25, xzr
    7158:	17ffff85 	b	6f6c <_ZN4core4cell4once17OnceCell$LT$T$GT$8try_init17h5f04ae72a6b83f12E+0x800>
    715c:	2a1f03f8 	mov	w24, wzr
    7160:	52800277 	mov	w23, #0x13                  	// #19
    7164:	aa0803f5 	mov	x21, x8
    7168:	aa1f03f9 	mov	x25, xzr
    716c:	17ffff80 	b	6f6c <_ZN4core4cell4once17OnceCell$LT$T$GT$8try_init17h5f04ae72a6b83f12E+0x800>
    7170:	385873a8 	ldurb	w8, [x29, #-121]
    7174:	785853a9 	ldurh	w9, [x29, #-123]
    7178:	b85813b8 	ldur	w24, [x29, #-127]
    717c:	f85883b5 	ldur	x21, [x29, #-120]
    7180:	2a084128 	orr	w8, w9, w8, lsl #16
    7184:	aa088308 	orr	x8, x24, x8, lsl #32
    7188:	d348fd19 	lsr	x25, x8, #8
    718c:	17ffff78 	b	6f6c <_ZN4core4cell4once17OnceCell$LT$T$GT$8try_init17h5f04ae72a6b83f12E+0x800>
    7190:	f94013f5 	ldr	x21, [sp, #32]
    7194:	14000004 	b	71a4 <_ZN4core4cell4once17OnceCell$LT$T$GT$8try_init17h5f04ae72a6b83f12E+0xa38>
    7198:	f9404bf5 	ldr	x21, [sp, #144]
    719c:	14000002 	b	71a4 <_ZN4core4cell4once17OnceCell$LT$T$GT$8try_init17h5f04ae72a6b83f12E+0xa38>
    71a0:	aa0803f5 	mov	x21, x8
    71a4:	aa1f03f9 	mov	x25, xzr
    71a8:	2a1f03f8 	mov	w24, wzr
    71ac:	17ffff6f 	b	6f68 <_ZN4core4cell4once17OnceCell$LT$T$GT$8try_init17h5f04ae72a6b83f12E+0x7fc>
    71b0:	f9400ff5 	ldr	x21, [sp, #24]
    71b4:	52800337 	mov	w23, #0x19                  	// #25
    71b8:	aa1f03f9 	mov	x25, xzr
    71bc:	17ffff6c 	b	6f6c <_ZN4core4cell4once17OnceCell$LT$T$GT$8try_init17h5f04ae72a6b83f12E+0x800>
    71c0:	f94007f5 	ldr	x21, [sp, #8]
    71c4:	52800337 	mov	w23, #0x19                  	// #25
    71c8:	aa1f03f9 	mov	x25, xzr
    71cc:	17ffff68 	b	6f6c <_ZN4core4cell4once17OnceCell$LT$T$GT$8try_init17h5f04ae72a6b83f12E+0x800>
    71d0:	f85483a0 	ldur	x0, [x29, #-184]
    71d4:	f100575f 	cmp	x26, #0x15
    71d8:	54000882 	b.cs	72e8 <_ZN4core4cell4once17OnceCell$LT$T$GT$8try_init17h5f04ae72a6b83f12E+0xb7c>  // b.hs, b.nlast
    71dc:	52800309 	mov	w9, #0x18                  	// #24
    71e0:	aa1f03e8 	mov	x8, xzr
    71e4:	9100600c 	add	x12, x0, #0x18
    71e8:	9b090349 	madd	x9, x26, x9, x0
    71ec:	aa0003ed 	mov	x13, x0
    71f0:	1400000a 	b	7218 <_ZN4core4cell4once17OnceCell$LT$T$GT$8try_init17h5f04ae72a6b83f12E+0xaac>
    71f4:	aa0003ec 	mov	x12, x0
    71f8:	f900018b 	str	x11, [x12]
    71fc:	3cd803a0 	ldur	q0, [x29, #-128]
    7200:	3c808180 	stur	q0, [x12, #8]
    7204:	9100614c 	add	x12, x10, #0x18
    7208:	91006108 	add	x8, x8, #0x18
    720c:	aa0a03ed 	mov	x13, x10
    7210:	eb09019f 	cmp	x12, x9
    7214:	54fff040 	b.eq	701c <_ZN4core4cell4once17OnceCell$LT$T$GT$8try_init17h5f04ae72a6b83f12E+0x8b0>  // b.none
    7218:	f9400dab 	ldr	x11, [x13, #24]
    721c:	f94001aa 	ldr	x10, [x13]
    7220:	eb0a017f 	cmp	x11, x10
    7224:	aa0c03ea 	mov	x10, x12
    7228:	54fffee2 	b.cs	7204 <_ZN4core4cell4once17OnceCell$LT$T$GT$8try_init17h5f04ae72a6b83f12E+0xa98>  // b.hs, b.nlast
    722c:	3dc009a0 	ldr	q0, [x13, #32]
    7230:	aa0803ec 	mov	x12, x8
    7234:	3c9803a0 	stur	q0, [x29, #-128]
    7238:	8b0c000d 	add	x13, x0, x12
    723c:	3dc001a0 	ldr	q0, [x13]
    7240:	f94009ae 	ldr	x14, [x13, #16]
    7244:	3c8181a0 	stur	q0, [x13, #24]
    7248:	f90015ae 	str	x14, [x13, #40]
    724c:	b4fffd4c 	cbz	x12, 71f4 <_ZN4core4cell4once17OnceCell$LT$T$GT$8try_init17h5f04ae72a6b83f12E+0xa88>
    7250:	f85e81ad 	ldur	x13, [x13, #-24]
    7254:	d100618c 	sub	x12, x12, #0x18
    7258:	eb0d017f 	cmp	x11, x13
    725c:	54fffee3 	b.cc	7238 <_ZN4core4cell4once17OnceCell$LT$T$GT$8try_init17h5f04ae72a6b83f12E+0xacc>  // b.lo, b.ul, b.last
    7260:	8b0c000c 	add	x12, x0, x12
    7264:	9100618c 	add	x12, x12, #0x18
    7268:	17ffffe4 	b	71f8 <_ZN4core4cell4once17OnceCell$LT$T$GT$8try_init17h5f04ae72a6b83f12E+0xa8c>
    726c:	d348ff58 	lsr	x24, x26, #8
    7270:	d350ff59 	lsr	x25, x26, #16
    7274:	17ffff3e 	b	6f6c <_ZN4core4cell4once17OnceCell$LT$T$GT$8try_init17h5f04ae72a6b83f12E+0x800>
    7278:	900002a3 	adrp	x3, 5b000 <__do_global_dtors_aux_fini_array_entry+0x4e8>
    727c:	910b6063 	add	x3, x3, #0x2d8
    7280:	aa1f03e0 	mov	x0, xzr
    7284:	aa0403e1 	mov	x1, x4
    7288:	528000a2 	mov	w2, #0x5                   	// #5
    728c:	97fff3ec 	bl	423c <_ZN4core5slice5index16slice_index_fail17hfd1b153dd86c29eaE>
    7290:	14000015 	b	72e4 <_ZN4core4cell4once17OnceCell$LT$T$GT$8try_init17h5f04ae72a6b83f12E+0xb78>
    7294:	91002269 	add	x9, x19, #0x8
    7298:	d10203a0 	sub	x0, x29, #0x80
    729c:	a93957a8 	stp	x8, x21, [x29, #-112]
    72a0:	a93853a9 	stp	x9, x20, [x29, #-128]
    72a4:	f81a03ba 	stur	x26, [x29, #-96]
    72a8:	94009aa8 	bl	2dd48 <_ZN4core3ptr560drop_in_place$LT$core..result..Result$LT$$RF$core..result..Result$LT$addr2line..function..Functions$LT$gimli..read..endian_slice..EndianSlice$LT$gimli..endianity..LittleEndian$GT$$GT$$C$gimli..read..Error$GT$$C$$LP$$RF$core..result..Result$LT$addr2line..function..Functions$LT$gimli..read..endian_slice..EndianSlice$LT$gimli..endianity..LittleEndian$GT$$GT$$C$gimli..read..Error$GT$$C$core..result..Result$LT$addr2line..function..Functions$LT$gimli..read..endian_slice..EndianSlice$LT$gimli..endianity..LittleEndian$GT$$GT$$C$gimli..read..Error$GT$$RP$$GT$$GT$17hace6b54b425e8c17E>
    72ac:	b00002a8 	adrp	x8, 5c000 <__do_global_dtors_aux_fini_array_entry+0x14e8>
    72b0:	91126108 	add	x8, x8, #0x498
    72b4:	52800029 	mov	w9, #0x1                   	// #1
    72b8:	a93827a8 	stp	x8, x9, [x29, #-128]
    72bc:	52800108 	mov	w8, #0x8                   	// #8
    72c0:	b00002a1 	adrp	x1, 5c000 <__do_global_dtors_aux_fini_array_entry+0x14e8>
    72c4:	9112a021 	add	x1, x1, #0x4a8
    72c8:	d10203a0 	sub	x0, x29, #0x80
    72cc:	a939ffbf 	stp	xzr, xzr, [x29, #-104]
    72d0:	f81903a8 	stur	x8, [x29, #-112]
    72d4:	97fff427 	bl	4370 <_ZN4core9panicking9panic_fmt17ha1b8843c59fc39d4E>
    72d8:	52800100 	mov	w0, #0x8                   	// #8
    72dc:	aa1503e1 	mov	x1, x21
    72e0:	97fff373 	bl	40ac <_ZN5alloc7raw_vec12handle_error17hbfb8377505525b80E>
    72e4:	d4200020 	brk	#0x1
    72e8:	aa1a03e1 	mov	x1, x26
    72ec:	940099f1 	bl	2dab0 <_ZN4core5slice4sort6stable14driftsort_main17h52830e6a421b8da1E>
    72f0:	17ffff4b 	b	701c <_ZN4core4cell4once17OnceCell$LT$T$GT$8try_init17h5f04ae72a6b83f12E+0x8b0>
    72f4:	14000015 	b	7348 <_ZN4core4cell4once17OnceCell$LT$T$GT$8try_init17h5f04ae72a6b83f12E+0xbdc>
    72f8:	14000014 	b	7348 <_ZN4core4cell4once17OnceCell$LT$T$GT$8try_init17h5f04ae72a6b83f12E+0xbdc>
    72fc:	14000013 	b	7348 <_ZN4core4cell4once17OnceCell$LT$T$GT$8try_init17h5f04ae72a6b83f12E+0xbdc>
    7300:	aa0003f3 	mov	x19, x0
    7304:	d10203a0 	sub	x0, x29, #0x80
    7308:	94009a33 	bl	2dbd4 <_ZN4core3ptr138drop_in_place$LT$addr2line..function..LazyFunction$LT$gimli..read..endian_slice..EndianSlice$LT$gimli..endianity..LittleEndian$GT$$GT$$GT$17h854a4b34edf536acE>
    730c:	14000010 	b	734c <_ZN4core4cell4once17OnceCell$LT$T$GT$8try_init17h5f04ae72a6b83f12E+0xbe0>
    7310:	aa0003f3 	mov	x19, x0
    7314:	aa1703e0 	mov	x0, x23
    7318:	52800101 	mov	w1, #0x8                   	// #8
    731c:	94000841 	bl	9420 <_RNvCsiGVaDesi5rv_7___rustc14___rust_dealloc>
    7320:	aa1403e0 	mov	x0, x20
    7324:	aa1603e1 	mov	x1, x22
    7328:	94009a67 	bl	2dcc4 <_ZN4core3ptr173drop_in_place$LT$alloc..boxed..Box$LT$$u5b$addr2line..function..LazyFunction$LT$gimli..read..endian_slice..EndianSlice$LT$gimli..endianity..LittleEndian$GT$$GT$$u5d$$GT$$GT$17h0cd8035266b993abE>
    732c:	aa1303e0 	mov	x0, x19
    7330:	97fff340 	bl	4030 <_Unwind_Resume@plt>
    7334:	aa0003f3 	mov	x19, x0
    7338:	910363e0 	add	x0, sp, #0xd8
    733c:	94009a3c 	bl	2dc2c <_ZN4core3ptr161drop_in_place$LT$alloc..vec..Vec$LT$addr2line..function..LazyFunction$LT$gimli..read..endian_slice..EndianSlice$LT$gimli..endianity..LittleEndian$GT$$GT$$GT$$GT$17h14b29172e95fdc61E>
    7340:	2a1f03f4 	mov	w20, wzr
    7344:	14000003 	b	7350 <_ZN4core4cell4once17OnceCell$LT$T$GT$8try_init17h5f04ae72a6b83f12E+0xbe4>
    7348:	aa0003f3 	mov	x19, x0
    734c:	52800034 	mov	w20, #0x1                   	// #1
    7350:	f85403a8 	ldur	x8, [x29, #-192]
    7354:	b4000088 	cbz	x8, 7364 <_ZN4core4cell4once17OnceCell$LT$T$GT$8try_init17h5f04ae72a6b83f12E+0xbf8>
    7358:	f85483a0 	ldur	x0, [x29, #-184]
    735c:	52800101 	mov	w1, #0x8                   	// #8
    7360:	94000830 	bl	9420 <_RNvCsiGVaDesi5rv_7___rustc14___rust_dealloc>
    7364:	3607fe54 	tbz	w20, #0, 732c <_ZN4core4cell4once17OnceCell$LT$T$GT$8try_init17h5f04ae72a6b83f12E+0xbc0>
    7368:	910363e0 	add	x0, sp, #0xd8
    736c:	94009a30 	bl	2dc2c <_ZN4core3ptr161drop_in_place$LT$alloc..vec..Vec$LT$addr2line..function..LazyFunction$LT$gimli..read..endian_slice..EndianSlice$LT$gimli..endianity..LittleEndian$GT$$GT$$GT$$GT$17h14b29172e95fdc61E>
    7370:	aa1303e0 	mov	x0, x19
    7374:	97fff32f 	bl	4030 <_Unwind_Resume@plt>

0000000000007378 <_ZN4core4cell4once17OnceCell$LT$T$GT$8try_init17h465fe4abef2d6422E>:
    7378:	d10583ff 	sub	sp, sp, #0x160
    737c:	a9107bfd 	stp	x29, x30, [sp, #256]
    7380:	a9116ffc 	stp	x28, x27, [sp, #272]
    7384:	a91267fa 	stp	x26, x25, [sp, #288]
    7388:	a9135ff8 	stp	x24, x23, [sp, #304]
    738c:	a91457f6 	stp	x22, x21, [sp, #320]
    7390:	a9154ff4 	stp	x20, x19, [sp, #336]
    7394:	910403fd 	add	x29, sp, #0x100
    7398:	f9400828 	ldr	x8, [x1, #16]
    739c:	f940002a 	ldr	x10, [x1]
    73a0:	52800089 	mov	w9, #0x4                   	// #4
    73a4:	5280018d 	mov	w13, #0xc                   	// #12
    73a8:	aa0003f3 	mov	x19, x0
    73ac:	f9400514 	ldr	x20, [x8, #8]
    73b0:	f940014c 	ldr	x12, [x10]
    73b4:	39412695 	ldrb	w21, [x20, #73]
    73b8:	a9432e8a 	ldp	x10, x11, [x20, #48]
    73bc:	f9402192 	ldr	x18, [x12, #64]
    73c0:	710022bf 	cmp	w21, #0x8
    73c4:	9a8901ac 	csel	x12, x13, x9, eq  // eq = none
    73c8:	cb0a0169 	sub	x9, x11, x10
    73cc:	f9000ff2 	str	x18, [sp, #24]
    73d0:	8b0c0129 	add	x9, x9, x12
    73d4:	eb09024d 	subs	x13, x18, x9
    73d8:	fa4d2140 	ccmp	x10, x13, #0x0, cs  // cs = hs, nlast
    73dc:	540000e8 	b.hi	73f8 <_ZN4core4cell4once17OnceCell$LT$T$GT$8try_init17h465fe4abef2d6422E+0x80>  // b.pmore
    73e0:	aa1f03f8 	mov	x24, xzr
    73e4:	2a1f03f7 	mov	w23, wzr
    73e8:	aa1f03f5 	mov	x21, xzr
    73ec:	52800776 	mov	w22, #0x3b                  	// #59
    73f0:	aa1403f9 	mov	x25, x20
    73f4:	1400002b 	b	74a0 <_ZN4core4cell4once17OnceCell$LT$T$GT$8try_init17h465fe4abef2d6422E+0x128>
    73f8:	f940168e 	ldr	x14, [x20, #40]
    73fc:	f940042f 	ldr	x15, [x1, #8]
    7400:	cb0d0151 	sub	x17, x10, x13
    7404:	f9400c30 	ldr	x16, [x1, #24]
    7408:	f9400116 	ldr	x22, [x8]
    740c:	aa1f03f9 	mov	x25, xzr
    7410:	f940ba88 	ldr	x8, [x20, #368]
    7414:	8b0d01cd 	add	x13, x14, x13
    7418:	394001e0 	ldrb	w0, [x15]
    741c:	f940021a 	ldr	x26, [x16]
    7420:	a90247ed 	stp	x13, x17, [sp, #32]
    7424:	8b0a01ca 	add	x10, x14, x10
    7428:	9100410d 	add	x13, x8, #0x10
    742c:	aa3203ee 	mvn	x14, x18
    7430:	cb0c024f 	sub	x15, x18, x12
    7434:	a90337f4 	stp	x20, x13, [sp, #48]
    7438:	8b0b018d 	add	x13, x12, x11
    743c:	2a1f03e9 	mov	w9, wzr
    7440:	8b0d01cc 	add	x12, x14, x13
    7444:	cb0b01eb 	sub	x11, x15, x11
    7448:	f90023ff 	str	xzr, [sp, #64]
    744c:	8b0b014d 	add	x13, x10, x11
    7450:	7100fd3f 	cmp	w9, #0x3f
    7454:	384015ae 	ldrb	w14, [x13], #1
    7458:	54000061 	b.ne	7464 <_ZN4core4cell4once17OnceCell$LT$T$GT$8try_init17h465fe4abef2d6422E+0xec>  // b.any
    745c:	710005df 	cmp	w14, #0x1
    7460:	54000168 	b.hi	748c <_ZN4core4cell4once17OnceCell$LT$T$GT$8try_init17h465fe4abef2d6422E+0x114>  // b.pmore
    7464:	924019cf 	and	x15, x14, #0x7f
    7468:	9ac921ef 	lsl	x15, x15, x9
    746c:	aa1901f9 	orr	x25, x15, x25
    7470:	3638044e 	tbz	w14, #7, 74f8 <_ZN4core4cell4once17OnceCell$LT$T$GT$8try_init17h465fe4abef2d6422E+0x180>
    7474:	b100056b 	adds	x11, x11, #0x1
    7478:	11001d29 	add	w9, w9, #0x7
    747c:	d100058c 	sub	x12, x12, #0x1
    7480:	54fffe63 	b.cc	744c <_ZN4core4cell4once17OnceCell$LT$T$GT$8try_init17h465fe4abef2d6422E+0xd4>  // b.lo, b.ul, b.last
    7484:	52800276 	mov	w22, #0x13                  	// #19
    7488:	14000002 	b	7490 <_ZN4core4cell4once17OnceCell$LT$T$GT$8try_init17h465fe4abef2d6422E+0x118>
    748c:	528000d6 	mov	w22, #0x6                   	// #6
    7490:	aa1f03f8 	mov	x24, xzr
    7494:	2a1f03f7 	mov	w23, wzr
    7498:	aa1f03f5 	mov	x21, xzr
    749c:	aa0a03f9 	mov	x25, x10
    74a0:	d370bf08 	lsl	x8, x24, #16
    74a4:	b9400269 	ldr	w9, [x19]
    74a8:	b3781ee8 	bfi	x8, x23, #8, #8
    74ac:	7100053f 	cmp	w9, #0x1
    74b0:	b3401ec8 	bfxil	x8, x22, #0, #8
    74b4:	54002220 	b.eq	78f8 <_ZN4core4cell4once17OnceCell$LT$T$GT$8try_init17h465fe4abef2d6422E+0x580>  // b.none
    74b8:	a9016668 	stp	x8, x25, [x19, #16]
    74bc:	f9400fe8 	ldr	x8, [sp, #24]
    74c0:	52800029 	mov	w9, #0x1                   	// #1
    74c4:	aa1303e0 	mov	x0, x19
    74c8:	f9000269 	str	x9, [x19]
    74cc:	f8008c15 	str	x21, [x0, #8]!
    74d0:	a902227a 	stp	x26, x8, [x19, #32]
    74d4:	a903727b 	stp	x27, x28, [x19, #48]
    74d8:	a9554ff4 	ldp	x20, x19, [sp, #336]
    74dc:	a95457f6 	ldp	x22, x21, [sp, #320]
    74e0:	a9535ff8 	ldp	x24, x23, [sp, #304]
    74e4:	a95267fa 	ldp	x26, x25, [sp, #288]
    74e8:	a9516ffc 	ldp	x28, x27, [sp, #272]
    74ec:	a9507bfd 	ldp	x29, x30, [sp, #256]
    74f0:	910583ff 	add	sp, sp, #0x160
    74f4:	d65f03c0 	ret
    74f8:	a90233ed 	stp	x13, x12, [sp, #32]
    74fc:	b4002259 	cbz	x25, 7944 <_ZN4core4cell4once17OnceCell$LT$T$GT$8try_init17h465fe4abef2d6422E+0x5cc>
    7500:	f940110a 	ldr	x10, [x8, #32]
    7504:	d1000729 	sub	x9, x25, #0x1
    7508:	eb0a013f 	cmp	x9, x10
    750c:	54000c22 	b.cs	7690 <_ZN4core4cell4once17OnceCell$LT$T$GT$8try_init17h465fe4abef2d6422E+0x318>  // b.hs, b.nlast
    7510:	52800e0a 	mov	w10, #0x70                  	// #112
    7514:	f9400d08 	ldr	x8, [x8, #24]
    7518:	9b0a2128 	madd	x8, x9, x10, x8
    751c:	3941a909 	ldrb	w9, [x8, #106]
    7520:	7100053f 	cmp	w9, #0x1
    7524:	54000061 	b.ne	7530 <_ZN4core4cell4once17OnceCell$LT$T$GT$8try_init17h465fe4abef2d6422E+0x1b8>  // b.any
    7528:	52800029 	mov	w9, #0x1                   	// #1
    752c:	f90023e9 	str	x9, [sp, #64]
    7530:	b9400109 	ldr	w9, [x8]
    7534:	7100053f 	cmp	w9, #0x1
    7538:	54000de1 	b.ne	76f4 <_ZN4core4cell4once17OnceCell$LT$T$GT$8try_init17h465fe4abef2d6422E+0x37c>  // b.any
    753c:	a9410517 	ldp	x23, x1, [x8, #16]
    7540:	aa1f03fb 	mov	x27, xzr
    7544:	b90017e0 	str	w0, [sp, #20]
    7548:	b4000e41 	cbz	x1, 7710 <_ZN4core4cell4once17OnceCell$LT$T$GT$8try_init17h465fe4abef2d6422E+0x398>
    754c:	d37cec38 	lsl	x24, x1, #4
    7550:	f940d299 	ldr	x25, [x20, #416]
    7554:	14000012 	b	759c <_ZN4core4cell4once17OnceCell$LT$T$GT$8try_init17h465fe4abef2d6422E+0x224>
    7558:	910183e0 	add	x0, sp, #0x60
    755c:	9101e3e1 	add	x1, sp, #0x78
    7560:	94008b92 	bl	2a3a8 <_ZN5gimli4read4unit18Attribute$LT$R$GT$5value17h7f5d1f83361d8fa8E>
    7564:	910123e0 	add	x0, sp, #0x48
    7568:	910183e4 	add	x4, sp, #0x60
    756c:	aa1603e1 	mov	x1, x22
    7570:	2a1503e2 	mov	w2, w21
    7574:	aa1903e3 	mov	x3, x25
    7578:	94007f56 	bl	272d0 <_ZN5gimli4read5dwarf14Dwarf$LT$R$GT$11attr_string17h87a8b29558e7a251E>
    757c:	b9404be8 	ldr	w8, [sp, #72]
    7580:	a9452be9 	ldp	x9, x10, [sp, #80]
    7584:	7100011f 	cmp	w8, #0x0
    7588:	9a8a139c 	csel	x28, x28, x10, ne  // ne = any
    758c:	9a89137b 	csel	x27, x27, x9, ne  // ne = any
    7590:	f1004318 	subs	x24, x24, #0x10
    7594:	910042f7 	add	x23, x23, #0x10
    7598:	54000bc0 	b.eq	7710 <_ZN4core4cell4once17OnceCell$LT$T$GT$8try_init17h465fe4abef2d6422E+0x398>  // b.none
    759c:	f9401be8 	ldr	x8, [sp, #48]
    75a0:	3dc002e0 	ldr	q0, [x23]
    75a4:	9101e3e0 	add	x0, sp, #0x78
    75a8:	910083e1 	add	x1, sp, #0x20
    75ac:	910183e3 	add	x3, sp, #0x60
    75b0:	b9404902 	ldr	w2, [x8, #72]
    75b4:	3d801be0 	str	q0, [sp, #96]
    75b8:	940082f7 	bl	28194 <_ZN5gimli4read4unit15parse_attribute17h1ad3e2b925521b15E>
    75bc:	f9403fe8 	ldr	x8, [sp, #120]
    75c0:	f100b91f 	cmp	x8, #0x2e
    75c4:	54001280 	b.eq	7814 <_ZN4core4cell4once17OnceCell$LT$T$GT$8try_init17h465fe4abef2d6422E+0x49c>  // b.none
    75c8:	794123e8 	ldrh	w8, [sp, #144]
    75cc:	7101191f 	cmp	w8, #0x46
    75d0:	5400012d 	b.le	75f4 <_ZN4core4cell4once17OnceCell$LT$T$GT$8try_init17h465fe4abef2d6422E+0x27c>
    75d4:	71011d1f 	cmp	w8, #0x47
    75d8:	54000160 	b.eq	7604 <_ZN4core4cell4once17OnceCell$LT$T$GT$8try_init17h465fe4abef2d6422E+0x28c>  // b.none
    75dc:	528400e9 	mov	w9, #0x2007                	// #8199
    75e0:	6b09011f 	cmp	w8, w9
    75e4:	54fffba0 	b.eq	7558 <_ZN4core4cell4once17OnceCell$LT$T$GT$8try_init17h465fe4abef2d6422E+0x1e0>  // b.none
    75e8:	7101b91f 	cmp	w8, #0x6e
    75ec:	54fffb60 	b.eq	7558 <_ZN4core4cell4once17OnceCell$LT$T$GT$8try_init17h465fe4abef2d6422E+0x1e0>  // b.none
    75f0:	17ffffe8 	b	7590 <_ZN4core4cell4once17OnceCell$LT$T$GT$8try_init17h465fe4abef2d6422E+0x218>
    75f4:	71000d1f 	cmp	w8, #0x3
    75f8:	54000280 	b.eq	7648 <_ZN4core4cell4once17OnceCell$LT$T$GT$8try_init17h465fe4abef2d6422E+0x2d0>  // b.none
    75fc:	7100c51f 	cmp	w8, #0x31
    7600:	54fffc81 	b.ne	7590 <_ZN4core4cell4once17OnceCell$LT$T$GT$8try_init17h465fe4abef2d6422E+0x218>  // b.any
    7604:	b5fffc7b 	cbnz	x27, 7590 <_ZN4core4cell4once17OnceCell$LT$T$GT$8try_init17h465fe4abef2d6422E+0x218>
    7608:	910183e0 	add	x0, sp, #0x60
    760c:	9101e3e1 	add	x1, sp, #0x78
    7610:	94008b66 	bl	2a3a8 <_ZN5gimli4read4unit18Attribute$LT$R$GT$5value17h7f5d1f83361d8fa8E>
    7614:	a9460be1 	ldp	x1, x2, [sp, #96]
    7618:	910123e0 	add	x0, sp, #0x48
    761c:	b94017e3 	ldr	w3, [sp, #20]
    7620:	aa1603e4 	mov	x4, x22
    7624:	aa1403e5 	mov	x5, x20
    7628:	aa1a03e6 	mov	x6, x26
    762c:	52800207 	mov	w7, #0x10                  	// #16
    7630:	94008e15 	bl	2ae84 <_ZN9addr2line8function9name_attr17h2e3aa93912730aeeE>
    7634:	b9404be8 	ldr	w8, [sp, #72]
    7638:	a94573fb 	ldp	x27, x28, [sp, #80]
    763c:	7100051f 	cmp	w8, #0x1
    7640:	54fffa81 	b.ne	7590 <_ZN4core4cell4once17OnceCell$LT$T$GT$8try_init17h465fe4abef2d6422E+0x218>  // b.any
    7644:	14000075 	b	7818 <_ZN4core4cell4once17OnceCell$LT$T$GT$8try_init17h465fe4abef2d6422E+0x4a0>
    7648:	b5fffa5b 	cbnz	x27, 7590 <_ZN4core4cell4once17OnceCell$LT$T$GT$8try_init17h465fe4abef2d6422E+0x218>
    764c:	910183e0 	add	x0, sp, #0x60
    7650:	9101e3e1 	add	x1, sp, #0x78
    7654:	94008b55 	bl	2a3a8 <_ZN5gimli4read4unit18Attribute$LT$R$GT$5value17h7f5d1f83361d8fa8E>
    7658:	910123e0 	add	x0, sp, #0x48
    765c:	910183e4 	add	x4, sp, #0x60
    7660:	aa1603e1 	mov	x1, x22
    7664:	2a1503e2 	mov	w2, w21
    7668:	aa1903e3 	mov	x3, x25
    766c:	94007f19 	bl	272d0 <_ZN5gimli4read5dwarf14Dwarf$LT$R$GT$11attr_string17h87a8b29558e7a251E>
    7670:	b9404be8 	ldr	w8, [sp, #72]
    7674:	a94527ea 	ldp	x10, x9, [sp, #80]
    7678:	f94007fc 	ldr	x28, [sp, #8]
    767c:	7100011f 	cmp	w8, #0x0
    7680:	9a89139c 	csel	x28, x28, x9, ne  // ne = any
    7684:	9a8a13fb 	csel	x27, xzr, x10, ne  // ne = any
    7688:	f90007fc 	str	x28, [sp, #8]
    768c:	17ffffc1 	b	7590 <_ZN4core4cell4once17OnceCell$LT$T$GT$8try_init17h465fe4abef2d6422E+0x218>
    7690:	f9401509 	ldr	x9, [x8, #40]
    7694:	b4000ce9 	cbz	x9, 7830 <_ZN4core4cell4once17OnceCell$LT$T$GT$8try_init17h465fe4abef2d6422E+0x4b8>
    7698:	f9401908 	ldr	x8, [x8, #48]
    769c:	794a652b 	ldrh	w11, [x9, #1330]
    76a0:	9113612d 	add	x13, x9, #0x4d8
    76a4:	9280000a 	mov	x10, #0xffffffffffffffff    	// #-1
    76a8:	d37df16c 	lsl	x12, x11, #3
    76ac:	b400018c 	cbz	x12, 76dc <_ZN4core4cell4once17OnceCell$LT$T$GT$8try_init17h465fe4abef2d6422E+0x364>
    76b0:	f84085ae 	ldr	x14, [x13], #8
    76b4:	d100218c 	sub	x12, x12, #0x8
    76b8:	9100054a 	add	x10, x10, #0x1
    76bc:	eb0e033f 	cmp	x25, x14
    76c0:	1a9f97ee 	cset	w14, hi  // hi = pmore
    76c4:	5a9f21ce 	csinv	w14, w14, wzr, cs  // cs = hs, nlast
    76c8:	12001dce 	and	w14, w14, #0xff
    76cc:	710005df 	cmp	w14, #0x1
    76d0:	54fffee0 	b.eq	76ac <_ZN4core4cell4once17OnceCell$LT$T$GT$8try_init17h465fe4abef2d6422E+0x334>  // b.none
    76d4:	3400072e 	cbz	w14, 77b8 <_ZN4core4cell4once17OnceCell$LT$T$GT$8try_init17h465fe4abef2d6422E+0x440>
    76d8:	14000002 	b	76e0 <_ZN4core4cell4once17OnceCell$LT$T$GT$8try_init17h465fe4abef2d6422E+0x368>
    76dc:	aa0b03ea 	mov	x10, x11
    76e0:	b4000a88 	cbz	x8, 7830 <_ZN4core4cell4once17OnceCell$LT$T$GT$8try_init17h465fe4abef2d6422E+0x4b8>
    76e4:	8b0a0d29 	add	x9, x9, x10, lsl #3
    76e8:	d1000508 	sub	x8, x8, #0x1
    76ec:	f9429d29 	ldr	x9, [x9, #1336]
    76f0:	17ffffeb 	b	769c <_ZN4core4cell4once17OnceCell$LT$T$GT$8try_init17h465fe4abef2d6422E+0x324>
    76f4:	f9400501 	ldr	x1, [x8, #8]
    76f8:	f100183f 	cmp	x1, #0x6
    76fc:	54000ea2 	b.cs	78d0 <_ZN4core4cell4once17OnceCell$LT$T$GT$8try_init17h465fe4abef2d6422E+0x558>  // b.hs, b.nlast
    7700:	91004117 	add	x23, x8, #0x10
    7704:	aa1f03fb 	mov	x27, xzr
    7708:	b90017e0 	str	w0, [sp, #20]
    770c:	b5fff201 	cbnz	x1, 754c <_ZN4core4cell4once17OnceCell$LT$T$GT$8try_init17h465fe4abef2d6422E+0x1d4>
    7710:	ad4107e0 	ldp	q0, q1, [sp, #32]
    7714:	9101e3e8 	add	x8, sp, #0x78
    7718:	b94017e9 	ldr	w9, [sp, #20]
    771c:	a908ffff 	stp	xzr, xzr, [sp, #136]
    7720:	a90debf4 	stp	x20, x26, [sp, #216]
    7724:	ad018500 	stp	q0, q1, [x8, #48]
    7728:	52800108 	mov	w8, #0x8                   	// #8
    772c:	a907a3ff 	stp	xzr, x8, [sp, #120]
    7730:	a909ffe8 	stp	x8, xzr, [sp, #152]
    7734:	f94023e8 	ldr	x8, [sp, #64]
    7738:	3903a3e9 	strb	w9, [sp, #232]
    773c:	a90cdbe8 	stp	x8, x22, [sp, #200]
    7740:	910183e0 	add	x0, sp, #0x60
    7744:	9101e3e1 	add	x1, sp, #0x78
    7748:	aa1f03e2 	mov	x2, xzr
    774c:	aa1f03e3 	mov	x3, xzr
    7750:	94008663 	bl	290dc <_ZN9addr2line8function17Function$LT$R$GT$14parse_children17hdc051c9d3dfd9a1dE>
    7754:	394183f6 	ldrb	w22, [sp, #96]
    7758:	71014adf 	cmp	w22, #0x52
    775c:	540003a1 	b.ne	77d0 <_ZN4core4cell4once17OnceCell$LT$T$GT$8try_init17h465fe4abef2d6422E+0x458>  // b.any
    7760:	f94053e1 	ldr	x1, [sp, #160]
    7764:	f100083f 	cmp	x1, #0x2
    7768:	54000be2 	b.cs	78e4 <_ZN4core4cell4once17OnceCell$LT$T$GT$8try_init17h465fe4abef2d6422E+0x56c>  // b.hs, b.nlast
    776c:	a9485bf4 	ldp	x20, x22, [sp, #128]
    7770:	f9403fe8 	ldr	x8, [sp, #120]
    7774:	eb16011f 	cmp	x8, x22
    7778:	54000669 	b.ls	7844 <_ZN4core4cell4once17OnceCell$LT$T$GT$8try_init17h465fe4abef2d6422E+0x4cc>  // b.plast
    777c:	b4000896 	cbz	x22, 788c <_ZN4core4cell4once17OnceCell$LT$T$GT$8try_init17h465fe4abef2d6422E+0x514>
    7780:	8b1606c9 	add	x9, x22, x22, lsl #1
    7784:	8b080508 	add	x8, x8, x8, lsl #1
    7788:	aa1403e0 	mov	x0, x20
    778c:	52800102 	mov	w2, #0x8                   	// #8
    7790:	d37ced37 	lsl	x23, x9, #4
    7794:	d37ced01 	lsl	x1, x8, #4
    7798:	aa1703e3 	mov	x3, x23
    779c:	94000722 	bl	9424 <_RNvCsiGVaDesi5rv_7___rustc14___rust_realloc>
    77a0:	aa0003f5 	mov	x21, x0
    77a4:	b5000520 	cbnz	x0, 7848 <_ZN4core4cell4once17OnceCell$LT$T$GT$8try_init17h465fe4abef2d6422E+0x4d0>
    77a8:	52800100 	mov	w0, #0x8                   	// #8
    77ac:	aa1703e1 	mov	x1, x23
    77b0:	97fff23f 	bl	40ac <_ZN5alloc7raw_vec12handle_error17hbfb8377505525b80E>
    77b4:	14000035 	b	7888 <_ZN4core4cell4once17OnceCell$LT$T$GT$8try_init17h465fe4abef2d6422E+0x510>
    77b8:	52800e08 	mov	w8, #0x70                  	// #112
    77bc:	9b082548 	madd	x8, x10, x8, x9
    77c0:	3941a909 	ldrb	w9, [x8, #106]
    77c4:	7100053f 	cmp	w9, #0x1
    77c8:	54ffeb00 	b.eq	7528 <_ZN4core4cell4once17OnceCell$LT$T$GT$8try_init17h465fe4abef2d6422E+0x1b0>  // b.none
    77cc:	17ffff59 	b	7530 <_ZN4core4cell4once17OnceCell$LT$T$GT$8try_init17h465fe4abef2d6422E+0x1b8>
    77d0:	394187f7 	ldrb	w23, [sp, #97]
    77d4:	f9403fe8 	ldr	x8, [sp, #120]
    77d8:	7940cff4 	ldrh	w20, [sp, #102]
    77dc:	b84623f5 	ldur	w21, [sp, #98]
    77e0:	f94037f9 	ldr	x25, [sp, #104]
    77e4:	b4000088 	cbz	x8, 77f4 <_ZN4core4cell4once17OnceCell$LT$T$GT$8try_init17h465fe4abef2d6422E+0x47c>
    77e8:	f94043e0 	ldr	x0, [sp, #128]
    77ec:	52800101 	mov	w1, #0x8                   	// #8
    77f0:	9400070c 	bl	9420 <_RNvCsiGVaDesi5rv_7___rustc14___rust_dealloc>
    77f4:	f9404be8 	ldr	x8, [sp, #144]
    77f8:	aa1482b8 	orr	x24, x21, x20, lsl #32
    77fc:	b4000088 	cbz	x8, 780c <_ZN4core4cell4once17OnceCell$LT$T$GT$8try_init17h465fe4abef2d6422E+0x494>
    7800:	f9404fe0 	ldr	x0, [sp, #152]
    7804:	52800101 	mov	w1, #0x8                   	// #8
    7808:	94000706 	bl	9420 <_RNvCsiGVaDesi5rv_7___rustc14___rust_dealloc>
    780c:	aa1f03f5 	mov	x21, xzr
    7810:	17ffff24 	b	74a0 <_ZN4core4cell4once17OnceCell$LT$T$GT$8try_init17h465fe4abef2d6422E+0x128>
    7814:	a94873fb 	ldp	x27, x28, [sp, #128]
    7818:	d348ff77 	lsr	x23, x27, #8
    781c:	aa1f03f5 	mov	x21, xzr
    7820:	d350ff78 	lsr	x24, x27, #16
    7824:	2a1b03f6 	mov	w22, w27
    7828:	aa1c03f9 	mov	x25, x28
    782c:	17ffff1d 	b	74a0 <_ZN4core4cell4once17OnceCell$LT$T$GT$8try_init17h465fe4abef2d6422E+0x128>
    7830:	aa1f03f8 	mov	x24, xzr
    7834:	2a1f03f7 	mov	w23, wzr
    7838:	aa1f03f5 	mov	x21, xzr
    783c:	52800256 	mov	w22, #0x12                  	// #18
    7840:	17ffff18 	b	74a0 <_ZN4core4cell4once17OnceCell$LT$T$GT$8try_init17h465fe4abef2d6422E+0x128>
    7844:	aa1403f5 	mov	x21, x20
    7848:	a949ebf4 	ldp	x20, x26, [sp, #152]
    784c:	f9404be8 	ldr	x8, [sp, #144]
    7850:	eb1a011f 	cmp	x8, x26
    7854:	540002c9 	b.ls	78ac <_ZN4core4cell4once17OnceCell$LT$T$GT$8try_init17h465fe4abef2d6422E+0x534>  // b.plast
    7858:	b40002fa 	cbz	x26, 78b4 <_ZN4core4cell4once17OnceCell$LT$T$GT$8try_init17h465fe4abef2d6422E+0x53c>
    785c:	d37beb57 	lsl	x23, x26, #5
    7860:	d37be901 	lsl	x1, x8, #5
    7864:	aa1403e0 	mov	x0, x20
    7868:	52800102 	mov	w2, #0x8                   	// #8
    786c:	aa1703e3 	mov	x3, x23
    7870:	940006ed 	bl	9424 <_RNvCsiGVaDesi5rv_7___rustc14___rust_realloc>
    7874:	aa0003f9 	mov	x25, x0
    7878:	b5000260 	cbnz	x0, 78c4 <_ZN4core4cell4once17OnceCell$LT$T$GT$8try_init17h465fe4abef2d6422E+0x54c>
    787c:	52800100 	mov	w0, #0x8                   	// #8
    7880:	aa1703e1 	mov	x1, x23
    7884:	97fff20a 	bl	40ac <_ZN5alloc7raw_vec12handle_error17hbfb8377505525b80E>
    7888:	d4200020 	brk	#0x1
    788c:	aa1403e0 	mov	x0, x20
    7890:	52800101 	mov	w1, #0x8                   	// #8
    7894:	52800115 	mov	w21, #0x8                   	// #8
    7898:	940006e2 	bl	9420 <_RNvCsiGVaDesi5rv_7___rustc14___rust_dealloc>
    789c:	a949ebf4 	ldp	x20, x26, [sp, #152]
    78a0:	f9404be8 	ldr	x8, [sp, #144]
    78a4:	eb1a011f 	cmp	x8, x26
    78a8:	54fffd88 	b.hi	7858 <_ZN4core4cell4once17OnceCell$LT$T$GT$8try_init17h465fe4abef2d6422E+0x4e0>  // b.pmore
    78ac:	aa1403f9 	mov	x25, x20
    78b0:	14000005 	b	78c4 <_ZN4core4cell4once17OnceCell$LT$T$GT$8try_init17h465fe4abef2d6422E+0x54c>
    78b4:	aa1403e0 	mov	x0, x20
    78b8:	52800101 	mov	w1, #0x8                   	// #8
    78bc:	52800119 	mov	w25, #0x8                   	// #8
    78c0:	940006d8 	bl	9420 <_RNvCsiGVaDesi5rv_7___rustc14___rust_dealloc>
    78c4:	d348fed7 	lsr	x23, x22, #8
    78c8:	d350fed8 	lsr	x24, x22, #16
    78cc:	17fffef5 	b	74a0 <_ZN4core4cell4once17OnceCell$LT$T$GT$8try_init17h465fe4abef2d6422E+0x128>
    78d0:	900002a3 	adrp	x3, 5b000 <__do_global_dtors_aux_fini_array_entry+0x4e8>
    78d4:	910b6063 	add	x3, x3, #0x2d8
    78d8:	aa1f03e0 	mov	x0, xzr
    78dc:	528000a2 	mov	w2, #0x5                   	// #5
    78e0:	97fff257 	bl	423c <_ZN4core5slice5index16slice_index_fail17hfd1b153dd86c29eaE>
    78e4:	f9404fe0 	ldr	x0, [sp, #152]
    78e8:	f100543f 	cmp	x1, #0x15
    78ec:	54000322 	b.cs	7950 <_ZN4core4cell4once17OnceCell$LT$T$GT$8try_init17h465fe4abef2d6422E+0x5d8>  // b.hs, b.nlast
    78f0:	94008a7e 	bl	2a2e8 <_ZN4core5slice4sort6shared9smallsort25insertion_sort_shift_left17h9d989137bcbdc607E>
    78f4:	17ffff9e 	b	776c <_ZN4core4cell4once17OnceCell$LT$T$GT$8try_init17h465fe4abef2d6422E+0x3f4>
    78f8:	a908e7e8 	stp	x8, x25, [sp, #136]
    78fc:	f9400fe8 	ldr	x8, [sp, #24]
    7900:	91002269 	add	x9, x19, #0x8
    7904:	9101e3e0 	add	x0, sp, #0x78
    7908:	a907d7e9 	stp	x9, x21, [sp, #120]
    790c:	a909a3fa 	stp	x26, x8, [sp, #152]
    7910:	a90af3fb 	stp	x27, x28, [sp, #168]
    7914:	94008e03 	bl	2b120 <_ZN4core3ptr557drop_in_place$LT$core..result..Result$LT$$RF$core..result..Result$LT$addr2line..function..Function$LT$gimli..read..endian_slice..EndianSlice$LT$gimli..endianity..LittleEndian$GT$$GT$$C$gimli..read..Error$GT$$C$$LP$$RF$core..result..Result$LT$addr2line..function..Function$LT$gimli..read..endian_slice..EndianSlice$LT$gimli..endianity..LittleEndian$GT$$GT$$C$gimli..read..Error$GT$$C$core..result..Result$LT$addr2line..function..Function$LT$gimli..read..endian_slice..EndianSlice$LT$gimli..endianity..LittleEndian$GT$$GT$$C$gimli..read..Error$GT$$RP$$GT$$GT$17h87ff69558b2cde6cE>
    7918:	b00002a8 	adrp	x8, 5c000 <__do_global_dtors_aux_fini_array_entry+0x14e8>
    791c:	91126108 	add	x8, x8, #0x498
    7920:	52800029 	mov	w9, #0x1                   	// #1
    7924:	a907a7e8 	stp	x8, x9, [sp, #120]
    7928:	52800108 	mov	w8, #0x8                   	// #8
    792c:	b00002a1 	adrp	x1, 5c000 <__do_global_dtors_aux_fini_array_entry+0x14e8>
    7930:	9112a021 	add	x1, x1, #0x4a8
    7934:	9101e3e0 	add	x0, sp, #0x78
    7938:	a9097fff 	stp	xzr, xzr, [sp, #144]
    793c:	f90047e8 	str	x8, [sp, #136]
    7940:	97fff28c 	bl	4370 <_ZN4core9panicking9panic_fmt17ha1b8843c59fc39d4E>
    7944:	b00002a0 	adrp	x0, 5c000 <__do_global_dtors_aux_fini_array_entry+0x14e8>
    7948:	912b0000 	add	x0, x0, #0xac0
    794c:	97fff235 	bl	4220 <_ZN4core6option13unwrap_failed17he309480dafb93b83E>
    7950:	94008a21 	bl	2a1d4 <_ZN4core5slice4sort6stable14driftsort_main17he18f8533dd4ea3a4E>
    7954:	17ffff86 	b	776c <_ZN4core4cell4once17OnceCell$LT$T$GT$8try_init17h465fe4abef2d6422E+0x3f4>
    7958:	aa0003f3 	mov	x19, x0
    795c:	aa1403e0 	mov	x0, x20
    7960:	52800101 	mov	w1, #0x8                   	// #8
    7964:	940006af 	bl	9420 <_RNvCsiGVaDesi5rv_7___rustc14___rust_dealloc>
    7968:	b50001d6 	cbnz	x22, 79a0 <_ZN4core4cell4once17OnceCell$LT$T$GT$8try_init17h465fe4abef2d6422E+0x628>
    796c:	14000010 	b	79ac <_ZN4core4cell4once17OnceCell$LT$T$GT$8try_init17h465fe4abef2d6422E+0x634>
    7970:	aa0003f3 	mov	x19, x0
    7974:	14000005 	b	7988 <_ZN4core4cell4once17OnceCell$LT$T$GT$8try_init17h465fe4abef2d6422E+0x610>
    7978:	f9403fe8 	ldr	x8, [sp, #120]
    797c:	aa0003f3 	mov	x19, x0
    7980:	b40000a8 	cbz	x8, 7994 <_ZN4core4cell4once17OnceCell$LT$T$GT$8try_init17h465fe4abef2d6422E+0x61c>
    7984:	f94043f4 	ldr	x20, [sp, #128]
    7988:	aa1403e0 	mov	x0, x20
    798c:	52800101 	mov	w1, #0x8                   	// #8
    7990:	940006a4 	bl	9420 <_RNvCsiGVaDesi5rv_7___rustc14___rust_dealloc>
    7994:	f9404be8 	ldr	x8, [sp, #144]
    7998:	b40000a8 	cbz	x8, 79ac <_ZN4core4cell4once17OnceCell$LT$T$GT$8try_init17h465fe4abef2d6422E+0x634>
    799c:	f9404ff5 	ldr	x21, [sp, #152]
    79a0:	aa1503e0 	mov	x0, x21
    79a4:	52800101 	mov	w1, #0x8                   	// #8
    79a8:	9400069e 	bl	9420 <_RNvCsiGVaDesi5rv_7___rustc14___rust_dealloc>
    79ac:	aa1303e0 	mov	x0, x19
    79b0:	97fff1a0 	bl	4030 <_Unwind_Resume@plt>

00000000000079b4 <_ZN5alloc7raw_vec19RawVec$LT$T$C$A$GT$8grow_one17h8916181841b6aaf5E>:
    79b4:	d10103ff 	sub	sp, sp, #0x40
    79b8:	a9027bfd 	stp	x29, x30, [sp, #32]
    79bc:	a9034ff4 	stp	x20, x19, [sp, #48]
    79c0:	910083fd 	add	x29, sp, #0x20
    79c4:	a9400801 	ldp	x1, x2, [x0]
    79c8:	52800088 	mov	w8, #0x4                   	// #4
    79cc:	aa0003f3 	mov	x19, x0
    79d0:	910023e0 	add	x0, sp, #0x8
    79d4:	52800104 	mov	w4, #0x8                   	// #8
    79d8:	52800605 	mov	w5, #0x30                  	// #48
    79dc:	d37ff829 	lsl	x9, x1, #1
    79e0:	f100113f 	cmp	x9, #0x4
    79e4:	9a888134 	csel	x20, x9, x8, hi  // hi = pmore
    79e8:	aa1403e3 	mov	x3, x20
    79ec:	97fffb2f 	bl	66a8 <_ZN5alloc7raw_vec20RawVecInner$LT$A$GT$11finish_grow17ha0ca981926be2dffE>
    79f0:	b9400be8 	ldr	w8, [sp, #8]
    79f4:	7100051f 	cmp	w8, #0x1
    79f8:	540000e0 	b.eq	7a14 <_ZN5alloc7raw_vec19RawVec$LT$T$C$A$GT$8grow_one17h8916181841b6aaf5E+0x60>  // b.none
    79fc:	f9400be8 	ldr	x8, [sp, #16]
    7a00:	a9002274 	stp	x20, x8, [x19]
    7a04:	a9434ff4 	ldp	x20, x19, [sp, #48]
    7a08:	a9427bfd 	ldp	x29, x30, [sp, #32]
    7a0c:	910103ff 	add	sp, sp, #0x40
    7a10:	d65f03c0 	ret
    7a14:	a94107e0 	ldp	x0, x1, [sp, #16]
    7a18:	97fff1a5 	bl	40ac <_ZN5alloc7raw_vec12handle_error17hbfb8377505525b80E>

0000000000007a1c <_ZN5alloc7raw_vec19RawVec$LT$T$C$A$GT$8grow_one17h2403fd2a7e7a58b6E>:
    7a1c:	d10103ff 	sub	sp, sp, #0x40
    7a20:	a9027bfd 	stp	x29, x30, [sp, #32]
    7a24:	a9034ff4 	stp	x20, x19, [sp, #48]
    7a28:	910083fd 	add	x29, sp, #0x20
    7a2c:	a9400801 	ldp	x1, x2, [x0]
    7a30:	52800088 	mov	w8, #0x4                   	// #4
    7a34:	aa0003f3 	mov	x19, x0
    7a38:	910023e0 	add	x0, sp, #0x8
    7a3c:	52800104 	mov	w4, #0x8                   	// #8
    7a40:	52800905 	mov	w5, #0x48                  	// #72
    7a44:	d37ff829 	lsl	x9, x1, #1
    7a48:	f100113f 	cmp	x9, #0x4
    7a4c:	9a888134 	csel	x20, x9, x8, hi  // hi = pmore
    7a50:	aa1403e3 	mov	x3, x20
    7a54:	97fffb15 	bl	66a8 <_ZN5alloc7raw_vec20RawVecInner$LT$A$GT$11finish_grow17ha0ca981926be2dffE>
    7a58:	b9400be8 	ldr	w8, [sp, #8]
    7a5c:	7100051f 	cmp	w8, #0x1
    7a60:	540000e0 	b.eq	7a7c <_ZN5alloc7raw_vec19RawVec$LT$T$C$A$GT$8grow_one17h2403fd2a7e7a58b6E+0x60>  // b.none
    7a64:	f9400be8 	ldr	x8, [sp, #16]
    7a68:	a9002274 	stp	x20, x8, [x19]
    7a6c:	a9434ff4 	ldp	x20, x19, [sp, #48]
    7a70:	a9427bfd 	ldp	x29, x30, [sp, #32]
    7a74:	910103ff 	add	sp, sp, #0x40
    7a78:	d65f03c0 	ret
    7a7c:	a94107e0 	ldp	x0, x1, [sp, #16]
    7a80:	97fff18b 	bl	40ac <_ZN5alloc7raw_vec12handle_error17hbfb8377505525b80E>

0000000000007a84 <_ZN5alloc7raw_vec19RawVec$LT$T$C$A$GT$8grow_one17h13fe238eeabe2bc0E>:
    7a84:	d10103ff 	sub	sp, sp, #0x40
    7a88:	a9027bfd 	stp	x29, x30, [sp, #32]
    7a8c:	a9034ff4 	stp	x20, x19, [sp, #48]
    7a90:	910083fd 	add	x29, sp, #0x20
    7a94:	a9400801 	ldp	x1, x2, [x0]
    7a98:	52800088 	mov	w8, #0x4                   	// #4
    7a9c:	aa0003f3 	mov	x19, x0
    7aa0:	910023e0 	add	x0, sp, #0x8
    7aa4:	52800044 	mov	w4, #0x2                   	// #2
    7aa8:	52800085 	mov	w5, #0x4                   	// #4
    7aac:	d37ff829 	lsl	x9, x1, #1
    7ab0:	f100113f 	cmp	x9, #0x4
    7ab4:	9a888134 	csel	x20, x9, x8, hi  // hi = pmore
    7ab8:	aa1403e3 	mov	x3, x20
    7abc:	97fffafb 	bl	66a8 <_ZN5alloc7raw_vec20RawVecInner$LT$A$GT$11finish_grow17ha0ca981926be2dffE>
    7ac0:	b9400be8 	ldr	w8, [sp, #8]
    7ac4:	7100051f 	cmp	w8, #0x1
    7ac8:	540000e0 	b.eq	7ae4 <_ZN5alloc7raw_vec19RawVec$LT$T$C$A$GT$8grow_one17h13fe238eeabe2bc0E+0x60>  // b.none
    7acc:	f9400be8 	ldr	x8, [sp, #16]
    7ad0:	a9002274 	stp	x20, x8, [x19]
    7ad4:	a9434ff4 	ldp	x20, x19, [sp, #48]
    7ad8:	a9427bfd 	ldp	x29, x30, [sp, #32]
    7adc:	910103ff 	add	sp, sp, #0x40
    7ae0:	d65f03c0 	ret
    7ae4:	a94107e0 	ldp	x0, x1, [sp, #16]
    7ae8:	97fff171 	bl	40ac <_ZN5alloc7raw_vec12handle_error17hbfb8377505525b80E>

0000000000007aec <_ZN5alloc7raw_vec19RawVec$LT$T$C$A$GT$8grow_one17hbdd9cf27974a6f4bE>:
    7aec:	d10103ff 	sub	sp, sp, #0x40
    7af0:	a9027bfd 	stp	x29, x30, [sp, #32]
    7af4:	a9034ff4 	stp	x20, x19, [sp, #48]
    7af8:	910083fd 	add	x29, sp, #0x20
    7afc:	a9400801 	ldp	x1, x2, [x0]
    7b00:	52800088 	mov	w8, #0x4                   	// #4
    7b04:	aa0003f3 	mov	x19, x0
    7b08:	910023e0 	add	x0, sp, #0x8
    7b0c:	52800104 	mov	w4, #0x8                   	// #8
    7b10:	52800305 	mov	w5, #0x18                  	// #24
    7b14:	d37ff829 	lsl	x9, x1, #1
    7b18:	f100113f 	cmp	x9, #0x4
    7b1c:	9a888134 	csel	x20, x9, x8, hi  // hi = pmore
    7b20:	aa1403e3 	mov	x3, x20
    7b24:	97fffae1 	bl	66a8 <_ZN5alloc7raw_vec20RawVecInner$LT$A$GT$11finish_grow17ha0ca981926be2dffE>
    7b28:	b9400be8 	ldr	w8, [sp, #8]
    7b2c:	7100051f 	cmp	w8, #0x1
    7b30:	540000e0 	b.eq	7b4c <_ZN5alloc7raw_vec19RawVec$LT$T$C$A$GT$8grow_one17hbdd9cf27974a6f4bE+0x60>  // b.none
    7b34:	f9400be8 	ldr	x8, [sp, #16]
    7b38:	a9002274 	stp	x20, x8, [x19]
    7b3c:	a9434ff4 	ldp	x20, x19, [sp, #48]
    7b40:	a9427bfd 	ldp	x29, x30, [sp, #32]
    7b44:	910103ff 	add	sp, sp, #0x40
    7b48:	d65f03c0 	ret
    7b4c:	a94107e0 	ldp	x0, x1, [sp, #16]
    7b50:	97fff157 	bl	40ac <_ZN5alloc7raw_vec12handle_error17hbfb8377505525b80E>

0000000000007b54 <_ZN5alloc7raw_vec19RawVec$LT$T$C$A$GT$8grow_one17hfaa53d1234530a0bE>:
    7b54:	d10103ff 	sub	sp, sp, #0x40
    7b58:	a9027bfd 	stp	x29, x30, [sp, #32]
    7b5c:	a9034ff4 	stp	x20, x19, [sp, #48]
    7b60:	910083fd 	add	x29, sp, #0x20
    7b64:	a9400801 	ldp	x1, x2, [x0]
    7b68:	52800088 	mov	w8, #0x4                   	// #4
    7b6c:	aa0003f3 	mov	x19, x0
    7b70:	910023e0 	add	x0, sp, #0x8
    7b74:	52800104 	mov	w4, #0x8                   	// #8
    7b78:	52800105 	mov	w5, #0x8                   	// #8
    7b7c:	d37ff829 	lsl	x9, x1, #1
    7b80:	f100113f 	cmp	x9, #0x4
    7b84:	9a888134 	csel	x20, x9, x8, hi  // hi = pmore
    7b88:	aa1403e3 	mov	x3, x20
    7b8c:	97fffac7 	bl	66a8 <_ZN5alloc7raw_vec20RawVecInner$LT$A$GT$11finish_grow17ha0ca981926be2dffE>
    7b90:	b9400be8 	ldr	w8, [sp, #8]
    7b94:	7100051f 	cmp	w8, #0x1
    7b98:	540000e0 	b.eq	7bb4 <_ZN5alloc7raw_vec19RawVec$LT$T$C$A$GT$8grow_one17hfaa53d1234530a0bE+0x60>  // b.none
    7b9c:	f9400be8 	ldr	x8, [sp, #16]
    7ba0:	a9002274 	stp	x20, x8, [x19]
    7ba4:	a9434ff4 	ldp	x20, x19, [sp, #48]
    7ba8:	a9427bfd 	ldp	x29, x30, [sp, #32]
    7bac:	910103ff 	add	sp, sp, #0x40
    7bb0:	d65f03c0 	ret
    7bb4:	a94107e0 	ldp	x0, x1, [sp, #16]
    7bb8:	97fff13d 	bl	40ac <_ZN5alloc7raw_vec12handle_error17hbfb8377505525b80E>

0000000000007bbc <_ZN4core4cell4once17OnceCell$LT$T$GT$8try_init17heb6d4d273dc68892E>:
    7bbc:	39400008 	ldrb	w8, [x0]
    7bc0:	71014d1f 	cmp	w8, #0x53
    7bc4:	540000a1 	b.ne	7bd8 <_ZN4core4cell4once17OnceCell$LT$T$GT$8try_init17heb6d4d273dc68892E+0x1c>  // b.any
    7bc8:	52800a48 	mov	w8, #0x52                  	// #82
    7bcc:	f900041f 	str	xzr, [x0, #8]
    7bd0:	39000008 	strb	w8, [x0]
    7bd4:	d65f03c0 	ret
    7bd8:	d10103ff 	sub	sp, sp, #0x40
    7bdc:	a9037bfd 	stp	x29, x30, [sp, #48]
    7be0:	9100c3fd 	add	x29, sp, #0x30
    7be4:	52800a40 	mov	w0, #0x52                  	// #82
    7be8:	aa1f03e1 	mov	x1, xzr
    7bec:	940079b0 	bl	262ac <_ZN4core3ptr701drop_in_place$LT$core..result..Result$LT$$RF$core..result..Result$LT$core..option..Option$LT$alloc..boxed..Box$LT$addr2line..unit..DwoUnit$LT$gimli..read..endian_slice..EndianSlice$LT$gimli..endianity..LittleEndian$GT$$GT$$GT$$GT$$C$gimli..read..Error$GT$$C$$LP$$RF$core..result..Result$LT$core..option..Option$LT$alloc..boxed..Box$LT$addr2line..unit..DwoUnit$LT$gimli..read..endian_slice..EndianSlice$LT$gimli..endianity..LittleEndian$GT$$GT$$GT$$GT$$C$gimli..read..Error$GT$$C$core..result..Result$LT$core..option..Option$LT$alloc..boxed..Box$LT$addr2line..unit..DwoUnit$LT$gimli..read..endian_slice..EndianSlice$LT$gimli..endianity..LittleEndian$GT$$GT$$GT$$GT$$C$gimli..read..Error$GT$$RP$$GT$$GT$17haa597f867e1a844dE>
    7bf0:	b00002a8 	adrp	x8, 5c000 <__do_global_dtors_aux_fini_array_entry+0x14e8>
    7bf4:	91126108 	add	x8, x8, #0x498
    7bf8:	52800029 	mov	w9, #0x1                   	// #1
    7bfc:	a90027e8 	stp	x8, x9, [sp]
    7c00:	52800108 	mov	w8, #0x8                   	// #8
    7c04:	b00002a1 	adrp	x1, 5c000 <__do_global_dtors_aux_fini_array_entry+0x14e8>
    7c08:	9112a021 	add	x1, x1, #0x4a8
    7c0c:	910003e0 	mov	x0, sp
    7c10:	a901ffff 	stp	xzr, xzr, [sp, #24]
    7c14:	f9000be8 	str	x8, [sp, #16]
    7c18:	97fff1d6 	bl	4370 <_ZN4core9panicking9panic_fmt17ha1b8843c59fc39d4E>

0000000000007c1c <_ZN4core4cell4once17OnceCell$LT$T$GT$8try_init17h73950e5c0c01b42dE>:
    7c1c:	3940000a 	ldrb	w10, [x0]
    7c20:	aa0103e8 	mov	x8, x1
    7c24:	39400029 	ldrb	w9, [x1]
    7c28:	f9400421 	ldr	x1, [x1, #8]
    7c2c:	71014d5f 	cmp	w10, #0x53
    7c30:	54000101 	b.ne	7c50 <_ZN4core4cell4once17OnceCell$LT$T$GT$8try_init17h73950e5c0c01b42dE+0x34>  // b.any
    7c34:	b840110a 	ldur	w10, [x8, #1]
    7c38:	b9400508 	ldr	w8, [x8, #4]
    7c3c:	39000009 	strb	w9, [x0]
    7c40:	f9000401 	str	x1, [x0, #8]
    7c44:	b800100a 	stur	w10, [x0, #1]
    7c48:	b9000408 	str	w8, [x0, #4]
    7c4c:	d65f03c0 	ret
    7c50:	71014d3f 	cmp	w9, #0x53
    7c54:	54000041 	b.ne	7c5c <_ZN4core4cell4once17OnceCell$LT$T$GT$8try_init17h73950e5c0c01b42dE+0x40>  // b.any
    7c58:	d65f03c0 	ret
    7c5c:	d10103ff 	sub	sp, sp, #0x40
    7c60:	a9037bfd 	stp	x29, x30, [sp, #48]
    7c64:	9100c3fd 	add	x29, sp, #0x30
    7c68:	2a0903e0 	mov	w0, w9
    7c6c:	94007990 	bl	262ac <_ZN4core3ptr701drop_in_place$LT$core..result..Result$LT$$RF$core..result..Result$LT$core..option..Option$LT$alloc..boxed..Box$LT$addr2line..unit..DwoUnit$LT$gimli..read..endian_slice..EndianSlice$LT$gimli..endianity..LittleEndian$GT$$GT$$GT$$GT$$C$gimli..read..Error$GT$$C$$LP$$RF$core..result..Result$LT$core..option..Option$LT$alloc..boxed..Box$LT$addr2line..unit..DwoUnit$LT$gimli..read..endian_slice..EndianSlice$LT$gimli..endianity..LittleEndian$GT$$GT$$GT$$GT$$C$gimli..read..Error$GT$$C$core..result..Result$LT$core..option..Option$LT$alloc..boxed..Box$LT$addr2line..unit..DwoUnit$LT$gimli..read..endian_slice..EndianSlice$LT$gimli..endianity..LittleEndian$GT$$GT$$GT$$GT$$C$gimli..read..Error$GT$$RP$$GT$$GT$17haa597f867e1a844dE>
    7c70:	b00002a8 	adrp	x8, 5c000 <__do_global_dtors_aux_fini_array_entry+0x14e8>
    7c74:	91126108 	add	x8, x8, #0x498
    7c78:	52800029 	mov	w9, #0x1                   	// #1
    7c7c:	a90027e8 	stp	x8, x9, [sp]
    7c80:	52800108 	mov	w8, #0x8                   	// #8
    7c84:	b00002a1 	adrp	x1, 5c000 <__do_global_dtors_aux_fini_array_entry+0x14e8>
    7c88:	9112a021 	add	x1, x1, #0x4a8
    7c8c:	910003e0 	mov	x0, sp
    7c90:	a901ffff 	stp	xzr, xzr, [sp, #24]
    7c94:	f9000be8 	str	x8, [sp, #16]
    7c98:	97fff1b6 	bl	4370 <_ZN4core9panicking9panic_fmt17ha1b8843c59fc39d4E>

0000000000007c9c <_ZN5alloc7raw_vec19RawVec$LT$T$C$A$GT$8grow_one17h62d73839b08d8844E>:
    7c9c:	d10103ff 	sub	sp, sp, #0x40
    7ca0:	a9027bfd 	stp	x29, x30, [sp, #32]
    7ca4:	a9034ff4 	stp	x20, x19, [sp, #48]
    7ca8:	910083fd 	add	x29, sp, #0x20
    7cac:	a9400801 	ldp	x1, x2, [x0]
    7cb0:	52800088 	mov	w8, #0x4                   	// #4
    7cb4:	aa0003f3 	mov	x19, x0
    7cb8:	910023e0 	add	x0, sp, #0x8
    7cbc:	52800104 	mov	w4, #0x8                   	// #8
    7cc0:	52800205 	mov	w5, #0x10                  	// #16
    7cc4:	d37ff829 	lsl	x9, x1, #1
    7cc8:	f100113f 	cmp	x9, #0x4
    7ccc:	9a888134 	csel	x20, x9, x8, hi  // hi = pmore
    7cd0:	aa1403e3 	mov	x3, x20
    7cd4:	97fffa75 	bl	66a8 <_ZN5alloc7raw_vec20RawVecInner$LT$A$GT$11finish_grow17ha0ca981926be2dffE>
    7cd8:	b9400be8 	ldr	w8, [sp, #8]
    7cdc:	7100051f 	cmp	w8, #0x1
    7ce0:	540000e0 	b.eq	7cfc <_ZN5alloc7raw_vec19RawVec$LT$T$C$A$GT$8grow_one17h62d73839b08d8844E+0x60>  // b.none
    7ce4:	f9400be8 	ldr	x8, [sp, #16]
    7ce8:	a9002274 	stp	x20, x8, [x19]
    7cec:	a9434ff4 	ldp	x20, x19, [sp, #48]
    7cf0:	a9427bfd 	ldp	x29, x30, [sp, #32]
    7cf4:	910103ff 	add	sp, sp, #0x40
    7cf8:	d65f03c0 	ret
    7cfc:	a94107e0 	ldp	x0, x1, [sp, #16]
    7d00:	97fff0eb 	bl	40ac <_ZN5alloc7raw_vec12handle_error17hbfb8377505525b80E>

0000000000007d04 <_ZN5alloc7raw_vec19RawVec$LT$T$C$A$GT$8grow_one17h1353df0b97ca0e95E>:
    7d04:	d10103ff 	sub	sp, sp, #0x40
    7d08:	a9027bfd 	stp	x29, x30, [sp, #32]
    7d0c:	a9034ff4 	stp	x20, x19, [sp, #48]
    7d10:	910083fd 	add	x29, sp, #0x20
    7d14:	a9400801 	ldp	x1, x2, [x0]
    7d18:	52800088 	mov	w8, #0x4                   	// #4
    7d1c:	aa0003f3 	mov	x19, x0
    7d20:	910023e0 	add	x0, sp, #0x8
    7d24:	52800104 	mov	w4, #0x8                   	// #8
    7d28:	52800405 	mov	w5, #0x20                  	// #32
    7d2c:	d37ff829 	lsl	x9, x1, #1
    7d30:	f100113f 	cmp	x9, #0x4
    7d34:	9a888134 	csel	x20, x9, x8, hi  // hi = pmore
    7d38:	aa1403e3 	mov	x3, x20
    7d3c:	97fffa5b 	bl	66a8 <_ZN5alloc7raw_vec20RawVecInner$LT$A$GT$11finish_grow17ha0ca981926be2dffE>
    7d40:	b9400be8 	ldr	w8, [sp, #8]
    7d44:	7100051f 	cmp	w8, #0x1
    7d48:	540000e0 	b.eq	7d64 <_ZN5alloc7raw_vec19RawVec$LT$T$C$A$GT$8grow_one17h1353df0b97ca0e95E+0x60>  // b.none
    7d4c:	f9400be8 	ldr	x8, [sp, #16]
    7d50:	a9002274 	stp	x20, x8, [x19]
    7d54:	a9434ff4 	ldp	x20, x19, [sp, #48]
    7d58:	a9427bfd 	ldp	x29, x30, [sp, #32]
    7d5c:	910103ff 	add	sp, sp, #0x40
    7d60:	d65f03c0 	ret
    7d64:	a94107e0 	ldp	x0, x1, [sp, #16]
    7d68:	97fff0d1 	bl	40ac <_ZN5alloc7raw_vec12handle_error17hbfb8377505525b80E>

0000000000007d6c <_ZN5alloc7raw_vec19RawVec$LT$T$C$A$GT$8grow_one17h71651117afe09551E>:
    7d6c:	d10103ff 	sub	sp, sp, #0x40
    7d70:	a9027bfd 	stp	x29, x30, [sp, #32]
    7d74:	a9034ff4 	stp	x20, x19, [sp, #48]
    7d78:	910083fd 	add	x29, sp, #0x20
    7d7c:	a9400801 	ldp	x1, x2, [x0]
    7d80:	52800088 	mov	w8, #0x4                   	// #4
    7d84:	aa0003f3 	mov	x19, x0
    7d88:	910023e0 	add	x0, sp, #0x8
    7d8c:	52800104 	mov	w4, #0x8                   	// #8
    7d90:	52804605 	mov	w5, #0x230                 	// #560
    7d94:	d37ff829 	lsl	x9, x1, #1
    7d98:	f100113f 	cmp	x9, #0x4
    7d9c:	9a888134 	csel	x20, x9, x8, hi  // hi = pmore
    7da0:	aa1403e3 	mov	x3, x20
    7da4:	97fffa41 	bl	66a8 <_ZN5alloc7raw_vec20RawVecInner$LT$A$GT$11finish_grow17ha0ca981926be2dffE>
    7da8:	b9400be8 	ldr	w8, [sp, #8]
    7dac:	7100051f 	cmp	w8, #0x1
    7db0:	540000e0 	b.eq	7dcc <_ZN5alloc7raw_vec19RawVec$LT$T$C$A$GT$8grow_one17h71651117afe09551E+0x60>  // b.none
    7db4:	f9400be8 	ldr	x8, [sp, #16]
    7db8:	a9002274 	stp	x20, x8, [x19]
    7dbc:	a9434ff4 	ldp	x20, x19, [sp, #48]
    7dc0:	a9427bfd 	ldp	x29, x30, [sp, #32]
    7dc4:	910103ff 	add	sp, sp, #0x40
    7dc8:	d65f03c0 	ret
    7dcc:	a94107e0 	ldp	x0, x1, [sp, #16]
    7dd0:	97fff0b7 	bl	40ac <_ZN5alloc7raw_vec12handle_error17hbfb8377505525b80E>

0000000000007dd4 <_ZN5alloc7raw_vec19RawVec$LT$T$C$A$GT$8grow_one17hd7a3c5d26fcd6bd5E>:
    7dd4:	d10103ff 	sub	sp, sp, #0x40
    7dd8:	a9027bfd 	stp	x29, x30, [sp, #32]
    7ddc:	a9034ff4 	stp	x20, x19, [sp, #48]
    7de0:	910083fd 	add	x29, sp, #0x20
    7de4:	a9400801 	ldp	x1, x2, [x0]
    7de8:	52800088 	mov	w8, #0x4                   	// #4
    7dec:	aa0003f3 	mov	x19, x0
    7df0:	910023e0 	add	x0, sp, #0x8
    7df4:	52800104 	mov	w4, #0x8                   	// #8
    7df8:	52803905 	mov	w5, #0x1c8                 	// #456
    7dfc:	d37ff829 	lsl	x9, x1, #1
    7e00:	f100113f 	cmp	x9, #0x4
    7e04:	9a888134 	csel	x20, x9, x8, hi  // hi = pmore
    7e08:	aa1403e3 	mov	x3, x20
    7e0c:	97fffa27 	bl	66a8 <_ZN5alloc7raw_vec20RawVecInner$LT$A$GT$11finish_grow17ha0ca981926be2dffE>
    7e10:	b9400be8 	ldr	w8, [sp, #8]
    7e14:	7100051f 	cmp	w8, #0x1
    7e18:	540000e0 	b.eq	7e34 <_ZN5alloc7raw_vec19RawVec$LT$T$C$A$GT$8grow_one17hd7a3c5d26fcd6bd5E+0x60>  // b.none
    7e1c:	f9400be8 	ldr	x8, [sp, #16]
    7e20:	a9002274 	stp	x20, x8, [x19]
    7e24:	a9434ff4 	ldp	x20, x19, [sp, #48]
    7e28:	a9427bfd 	ldp	x29, x30, [sp, #32]
    7e2c:	910103ff 	add	sp, sp, #0x40
    7e30:	d65f03c0 	ret
    7e34:	a94107e0 	ldp	x0, x1, [sp, #16]
    7e38:	97fff09d 	bl	40ac <_ZN5alloc7raw_vec12handle_error17hbfb8377505525b80E>

0000000000007e3c <_ZN3std3sys3pal6common14small_c_string24run_with_cstr_allocating17h9baeb4e655b87d8fE>:
    7e3c:	d103c3ff 	sub	sp, sp, #0xf0
    7e40:	a90c7bfd 	stp	x29, x30, [sp, #192]
    7e44:	f9006bf5 	str	x21, [sp, #208]
    7e48:	a90e4ff4 	stp	x20, x19, [sp, #224]
    7e4c:	910303fd 	add	x29, sp, #0xc0
    7e50:	aa0003f3 	mov	x19, x0
    7e54:	910003e0 	mov	x0, sp
    7e58:	940006ad 	bl	990c <_ZN81_$LT$$RF$$u5b$u8$u5d$$u20$as$u20$alloc..ffi..c_str..CString..new..SpecNewImpl$GT$13spec_new_impl17h23bd15eedb533220E>
    7e5c:	f94003e8 	ldr	x8, [sp]
    7e60:	d2f00009 	mov	x9, #0x8000000000000000    	// #-9223372036854775808
    7e64:	eb09011f 	cmp	x8, x9
    7e68:	54000401 	b.ne	7ee8 <_ZN3std3sys3pal6common14small_c_string24run_with_cstr_allocating17h9baeb4e655b87d8fE+0xac>  // b.any
    7e6c:	a940d7f4 	ldp	x20, x21, [sp, #8]
    7e70:	910083e0 	add	x0, sp, #0x20
    7e74:	12800c61 	mov	w1, #0xffffff9c            	// #-100
    7e78:	2a1f03e3 	mov	w3, wzr
    7e7c:	aa1403e2 	mov	x2, x20
    7e80:	9400b1f5 	bl	34654 <_ZN3std3sys2fs4unix9try_statx17h9c240c1ae55cb5eaE>
    7e84:	f94013e8 	ldr	x8, [sp, #32]
    7e88:	f1000d1f 	cmp	x8, #0x3
    7e8c:	540003c1 	b.ne	7f04 <_ZN3std3sys3pal6common14small_c_string24run_with_cstr_allocating17h9baeb4e655b87d8fE+0xc8>  // b.any
    7e90:	6f00e400 	movi	v0.2d, #0x0
    7e94:	910083e1 	add	x1, sp, #0x20
    7e98:	aa1403e0 	mov	x0, x20
    7e9c:	ad0103e0 	stp	q0, q0, [sp, #32]
    7ea0:	ad0203e0 	stp	q0, q0, [sp, #64]
    7ea4:	ad0303e0 	stp	q0, q0, [sp, #96]
    7ea8:	ad0403e0 	stp	q0, q0, [sp, #128]
    7eac:	97ffefd1 	bl	3df0 <stat64@plt>
    7eb0:	3100041f 	cmn	w0, #0x1
    7eb4:	540004e0 	b.eq	7f50 <_ZN3std3sys3pal6common14small_c_string24run_with_cstr_allocating17h9baeb4e655b87d8fE+0x114>  // b.none
    7eb8:	ad4307e0 	ldp	q0, q1, [sp, #96]
    7ebc:	f900027f 	str	xzr, [x19]
    7ec0:	ad030660 	stp	q0, q1, [x19, #96]
    7ec4:	ad440be0 	ldp	q0, q2, [sp, #128]
    7ec8:	ad040a60 	stp	q0, q2, [x19, #128]
    7ecc:	ad4103e1 	ldp	q1, q0, [sp, #32]
    7ed0:	ad010261 	stp	q1, q0, [x19, #32]
    7ed4:	ad4203e2 	ldp	q2, q0, [sp, #64]
    7ed8:	ad020262 	stp	q2, q0, [x19, #64]
    7edc:	3900029f 	strb	wzr, [x20]
    7ee0:	b50002b5 	cbnz	x21, 7f34 <_ZN3std3sys3pal6common14small_c_string24run_with_cstr_allocating17h9baeb4e655b87d8fE+0xf8>
    7ee4:	14000022 	b	7f6c <_ZN3std3sys3pal6common14small_c_string24run_with_cstr_allocating17h9baeb4e655b87d8fE+0x130>
    7ee8:	900002a9 	adrp	x9, 5b000 <__do_global_dtors_aux_fini_array_entry+0x4e8>
    7eec:	913f8129 	add	x9, x9, #0xfe0
    7ef0:	5280004a 	mov	w10, #0x2                   	// #2
    7ef4:	a900266a 	stp	x10, x9, [x19]
    7ef8:	b40003a8 	cbz	x8, 7f6c <_ZN3std3sys3pal6common14small_c_string24run_with_cstr_allocating17h9baeb4e655b87d8fE+0x130>
    7efc:	f94007f4 	ldr	x20, [sp, #8]
    7f00:	1400000d 	b	7f34 <_ZN3std3sys3pal6common14small_c_string24run_with_cstr_allocating17h9baeb4e655b87d8fE+0xf8>
    7f04:	ad4407e0 	ldp	q0, q1, [sp, #128]
    7f08:	ad030660 	stp	q0, q1, [x19, #96]
    7f0c:	ad450be0 	ldp	q0, q2, [sp, #160]
    7f10:	ad040a60 	stp	q0, q2, [x19, #128]
    7f14:	ad4203e1 	ldp	q1, q0, [sp, #64]
    7f18:	ad010261 	stp	q1, q0, [x19, #32]
    7f1c:	ad4303e2 	ldp	q2, q0, [sp, #96]
    7f20:	ad020262 	stp	q2, q0, [x19, #64]
    7f24:	ad4103e1 	ldp	q1, q0, [sp, #32]
    7f28:	ad000261 	stp	q1, q0, [x19]
    7f2c:	3900029f 	strb	wzr, [x20]
    7f30:	b40001f5 	cbz	x21, 7f6c <_ZN3std3sys3pal6common14small_c_string24run_with_cstr_allocating17h9baeb4e655b87d8fE+0x130>
    7f34:	aa1403e0 	mov	x0, x20
    7f38:	52800021 	mov	w1, #0x1                   	// #1
    7f3c:	a94e4ff4 	ldp	x20, x19, [sp, #224]
    7f40:	f9406bf5 	ldr	x21, [sp, #208]
    7f44:	a94c7bfd 	ldp	x29, x30, [sp, #192]
    7f48:	9103c3ff 	add	sp, sp, #0xf0
    7f4c:	14000535 	b	9420 <_RNvCsiGVaDesi5rv_7___rustc14___rust_dealloc>
    7f50:	97fff02c 	bl	4000 <__errno_location@plt>
    7f54:	b9400009 	ldr	w9, [x0]
    7f58:	52800048 	mov	w8, #0x2                   	// #2
    7f5c:	aa098109 	orr	x9, x8, x9, lsl #32
    7f60:	a9002668 	stp	x8, x9, [x19]
    7f64:	3900029f 	strb	wzr, [x20]
    7f68:	b5fffe75 	cbnz	x21, 7f34 <_ZN3std3sys3pal6common14small_c_string24run_with_cstr_allocating17h9baeb4e655b87d8fE+0xf8>
    7f6c:	a94e4ff4 	ldp	x20, x19, [sp, #224]
    7f70:	f9406bf5 	ldr	x21, [sp, #208]
    7f74:	a94c7bfd 	ldp	x29, x30, [sp, #192]
    7f78:	9103c3ff 	add	sp, sp, #0xf0
    7f7c:	d65f03c0 	ret

0000000000007f80 <_ZN3std3sys3pal6common14small_c_string24run_with_cstr_allocating17hd34b024646a5ba6aE>:
    7f80:	d10143ff 	sub	sp, sp, #0x50
    7f84:	a9027bfd 	stp	x29, x30, [sp, #32]
    7f88:	a90357f6 	stp	x22, x21, [sp, #48]
    7f8c:	a9044ff4 	stp	x20, x19, [sp, #64]
    7f90:	910083fd 	add	x29, sp, #0x20
    7f94:	aa0003f4 	mov	x20, x0
    7f98:	910003e0 	mov	x0, sp
    7f9c:	aa0303f5 	mov	x21, x3
    7fa0:	9400065b 	bl	990c <_ZN81_$LT$$RF$$u5b$u8$u5d$$u20$as$u20$alloc..ffi..c_str..CString..new..SpecNewImpl$GT$13spec_new_impl17h23bd15eedb533220E>
    7fa4:	f94003e8 	ldr	x8, [sp]
    7fa8:	d2f00009 	mov	x9, #0x8000000000000000    	// #-9223372036854775808
    7fac:	eb09011f 	cmp	x8, x9
    7fb0:	54000121 	b.ne	7fd4 <_ZN3std3sys3pal6common14small_c_string24run_with_cstr_allocating17hd34b024646a5ba6aE+0x54>  // b.any
    7fb4:	a940dbf3 	ldp	x19, x22, [sp, #8]
    7fb8:	aa1403e0 	mov	x0, x20
    7fbc:	aa1303e1 	mov	x1, x19
    7fc0:	aa1503e2 	mov	x2, x21
    7fc4:	94005837 	bl	1e0a0 <_ZN3std3sys2fs4unix4File6open_c17h4d00dc971e73a6deE>
    7fc8:	3900027f 	strb	wzr, [x19]
    7fcc:	b5000136 	cbnz	x22, 7ff0 <_ZN3std3sys3pal6common14small_c_string24run_with_cstr_allocating17hd34b024646a5ba6aE+0x70>
    7fd0:	1400000f 	b	800c <_ZN3std3sys3pal6common14small_c_string24run_with_cstr_allocating17hd34b024646a5ba6aE+0x8c>
    7fd4:	900002a9 	adrp	x9, 5b000 <__do_global_dtors_aux_fini_array_entry+0x4e8>
    7fd8:	913f8129 	add	x9, x9, #0xfe0
    7fdc:	f9000689 	str	x9, [x20, #8]
    7fe0:	52800029 	mov	w9, #0x1                   	// #1
    7fe4:	b9000289 	str	w9, [x20]
    7fe8:	b4000128 	cbz	x8, 800c <_ZN3std3sys3pal6common14small_c_string24run_with_cstr_allocating17hd34b024646a5ba6aE+0x8c>
    7fec:	f94007f3 	ldr	x19, [sp, #8]
    7ff0:	aa1303e0 	mov	x0, x19
    7ff4:	52800021 	mov	w1, #0x1                   	// #1
    7ff8:	a9444ff4 	ldp	x20, x19, [sp, #64]
    7ffc:	a94357f6 	ldp	x22, x21, [sp, #48]
    8000:	a9427bfd 	ldp	x29, x30, [sp, #32]
    8004:	910143ff 	add	sp, sp, #0x50
    8008:	14000506 	b	9420 <_RNvCsiGVaDesi5rv_7___rustc14___rust_dealloc>
    800c:	a9444ff4 	ldp	x20, x19, [sp, #64]
    8010:	a94357f6 	ldp	x22, x21, [sp, #48]
    8014:	a9427bfd 	ldp	x29, x30, [sp, #32]
    8018:	910143ff 	add	sp, sp, #0x50
    801c:	d65f03c0 	ret
    8020:	aa0003f4 	mov	x20, x0
    8024:	3900027f 	strb	wzr, [x19]
    8028:	b4000096 	cbz	x22, 8038 <_ZN3std3sys3pal6common14small_c_string24run_with_cstr_allocating17hd34b024646a5ba6aE+0xb8>
    802c:	aa1303e0 	mov	x0, x19
    8030:	52800021 	mov	w1, #0x1                   	// #1
    8034:	940004fb 	bl	9420 <_RNvCsiGVaDesi5rv_7___rustc14___rust_dealloc>
    8038:	aa1403e0 	mov	x0, x20
    803c:	97ffeffd 	bl	4030 <_Unwind_Resume@plt>

0000000000008040 <_ZN5alloc7raw_vec19RawVec$LT$T$C$A$GT$8grow_one17h15f4a69cd7cc8268E>:
    8040:	d10103ff 	sub	sp, sp, #0x40
    8044:	a9027bfd 	stp	x29, x30, [sp, #32]
    8048:	a9034ff4 	stp	x20, x19, [sp, #48]
    804c:	910083fd 	add	x29, sp, #0x20
    8050:	a9400801 	ldp	x1, x2, [x0]
    8054:	52800088 	mov	w8, #0x4                   	// #4
    8058:	aa0003f3 	mov	x19, x0
    805c:	910023e0 	add	x0, sp, #0x8
    8060:	52800104 	mov	w4, #0x8                   	// #8
    8064:	52800705 	mov	w5, #0x38                  	// #56
    8068:	d37ff829 	lsl	x9, x1, #1
    806c:	f100113f 	cmp	x9, #0x4
    8070:	9a888134 	csel	x20, x9, x8, hi  // hi = pmore
    8074:	aa1403e3 	mov	x3, x20
    8078:	97fff98c 	bl	66a8 <_ZN5alloc7raw_vec20RawVecInner$LT$A$GT$11finish_grow17ha0ca981926be2dffE>
    807c:	b9400be8 	ldr	w8, [sp, #8]
    8080:	7100051f 	cmp	w8, #0x1
    8084:	540000e0 	b.eq	80a0 <_ZN5alloc7raw_vec19RawVec$LT$T$C$A$GT$8grow_one17h15f4a69cd7cc8268E+0x60>  // b.none
    8088:	f9400be8 	ldr	x8, [sp, #16]
    808c:	a9002274 	stp	x20, x8, [x19]
    8090:	a9434ff4 	ldp	x20, x19, [sp, #48]
    8094:	a9427bfd 	ldp	x29, x30, [sp, #32]
    8098:	910103ff 	add	sp, sp, #0x40
    809c:	d65f03c0 	ret
    80a0:	a94107e0 	ldp	x0, x1, [sp, #16]
    80a4:	97fff002 	bl	40ac <_ZN5alloc7raw_vec12handle_error17hbfb8377505525b80E>

00000000000080a8 <_ZN3std3sys4sync5mutex5futex5Mutex14lock_contended17h16b56bbe4514d057E>:
    80a8:	d10103ff 	sub	sp, sp, #0x40
    80ac:	a9027bfd 	stp	x29, x30, [sp, #32]
    80b0:	a9034ff4 	stp	x20, x19, [sp, #48]
    80b4:	910083fd 	add	x29, sp, #0x20
    80b8:	aa0003f3 	mov	x19, x0
    80bc:	b9400000 	ldr	w0, [x0]
    80c0:	7100041f 	cmp	w0, #0x1
    80c4:	54000121 	b.ne	80e8 <_ZN3std3sys4sync5mutex5futex5Mutex14lock_contended17h16b56bbe4514d057E+0x40>  // b.any
    80c8:	12800c49 	mov	w9, #0xffffff9d            	// #-99
    80cc:	d5033fdf 	isb
    80d0:	b9400260 	ldr	w0, [x19]
    80d4:	7100041f 	cmp	w0, #0x1
    80d8:	54000081 	b.ne	80e8 <_ZN3std3sys4sync5mutex5futex5Mutex14lock_contended17h16b56bbe4514d057E+0x40>  // b.any
    80dc:	2a0903e8 	mov	w8, w9
    80e0:	11000529 	add	w9, w9, #0x1
    80e4:	35ffff48 	cbnz	w8, 80cc <_ZN3std3sys4sync5mutex5futex5Mutex14lock_contended17h16b56bbe4514d057E+0x24>
    80e8:	35000140 	cbnz	w0, 8110 <_ZN3std3sys4sync5mutex5futex5Mutex14lock_contended17h16b56bbe4514d057E+0x68>
    80ec:	52800021 	mov	w1, #0x1                   	// #1
    80f0:	aa1303e2 	mov	x2, x19
    80f4:	9400cfcf 	bl	3c030 <__aarch64_cas4_acq>
    80f8:	7100001f 	cmp	w0, #0x0
    80fc:	540000a1 	b.ne	8110 <_ZN3std3sys4sync5mutex5futex5Mutex14lock_contended17h16b56bbe4514d057E+0x68>  // b.any
    8100:	a9434ff4 	ldp	x20, x19, [sp, #48]
    8104:	a9427bfd 	ldp	x29, x30, [sp, #32]
    8108:	910103ff 	add	sp, sp, #0x40
    810c:	d65f03c0 	ret
    8110:	910023e8 	add	x8, sp, #0x8
    8114:	91002114 	add	x20, x8, #0x8
    8118:	7100081f 	cmp	w0, #0x2
    811c:	540000a0 	b.eq	8130 <_ZN3std3sys4sync5mutex5futex5Mutex14lock_contended17h16b56bbe4514d057E+0x88>  // b.none
    8120:	52800040 	mov	w0, #0x2                   	// #2
    8124:	aa1303e1 	mov	x1, x19
    8128:	9400cff2 	bl	3c0f0 <__aarch64_swp4_acq>
    812c:	34fffea0 	cbz	w0, 8100 <_ZN3std3sys4sync5mutex5futex5Mutex14lock_contended17h16b56bbe4514d057E+0x58>
    8130:	f90007ff 	str	xzr, [sp, #8]
    8134:	b9400268 	ldr	w8, [x19]
    8138:	7100091f 	cmp	w8, #0x2
    813c:	54000201 	b.ne	817c <_ZN3std3sys4sync5mutex5futex5Mutex14lock_contended17h16b56bbe4514d057E+0xd4>  // b.any
    8140:	b9400be8 	ldr	w8, [sp, #8]
    8144:	52800c40 	mov	w0, #0x62                  	// #98
    8148:	aa1303e1 	mov	x1, x19
    814c:	52801122 	mov	w2, #0x89                  	// #137
    8150:	52800043 	mov	w3, #0x2                   	// #2
    8154:	aa1f03e5 	mov	x5, xzr
    8158:	7100011f 	cmp	w8, #0x0
    815c:	12800006 	mov	w6, #0xffffffff            	// #-1
    8160:	9a9f1284 	csel	x4, x20, xzr, ne  // ne = any
    8164:	97ffefbb 	bl	4050 <syscall@plt>
    8168:	b6f800a0 	tbz	x0, #63, 817c <_ZN3std3sys4sync5mutex5futex5Mutex14lock_contended17h16b56bbe4514d057E+0xd4>
    816c:	97ffefa5 	bl	4000 <__errno_location@plt>
    8170:	b9400008 	ldr	w8, [x0]
    8174:	7100111f 	cmp	w8, #0x4
    8178:	54fffde0 	b.eq	8134 <_ZN3std3sys4sync5mutex5futex5Mutex14lock_contended17h16b56bbe4514d057E+0x8c>  // b.none
    817c:	b9400260 	ldr	w0, [x19]
    8180:	7100041f 	cmp	w0, #0x1
